Component: ARM Compiler 5.06 update 7 (build 960) Tool: armlink [4d3601]

==============================================================================

Section Cross References

    main.o(i.EXTI7_Init) refers to stm32f10x_rcc.o(i.RCC_APB2PeriphClockCmd) for RCC_APB2PeriphClockCmd
    main.o(i.EXTI7_Init) refers to stm32f10x_gpio.o(i.GPIO_EXTILineConfig) for GPIO_EXTILineConfig
    main.o(i.EXTI7_Init) refers to my_stm32f10x_exti.o(i.EXTI_Init) for EXTI_Init
    main.o(i.EXTI7_Init) refers to misc.o(i.NVIC_Init) for NVIC_Init
    main.o(i.EXTI9_5_IRQHandler) refers to my_stm32f10x_exti.o(i.EXTI_GetITStatus) for EXTI_GetITStatus
    main.o(i.EXTI9_5_IRQHandler) refers to my_stm32f10x_exti.o(i.EXTI_ClearITPendingBit) for EXTI_ClearITPendingBit
    main.o(i.EXTI9_5_IRQHandler) refers to main.o(.data) for ov_sta
    main.o(i.My_EXTI_Init) refers to stm32f10x_rcc.o(i.RCC_APB2PeriphClockCmd) for RCC_APB2PeriphClockCmd
    main.o(i.My_EXTI_Init) refers to stm32f10x_gpio.o(i.GPIO_EXTILineConfig) for GPIO_EXTILineConfig
    main.o(i.My_EXTI_Init) refers to misc.o(i.NVIC_Init) for NVIC_Init
    main.o(i.My_EXTI_Init) refers to my_stm32f10x_exti.o(i.EXTI_Init) for EXTI_Init
    main.o(i.Zbar_Test) refers to img_scanner.o(i.zbar_image_scanner_create) for zbar_image_scanner_create
    main.o(i.Zbar_Test) refers to img_scanner.o(i.zbar_image_scanner_set_config) for zbar_image_scanner_set_config
    main.o(i.Zbar_Test) refers to image.o(i.zbar_image_create) for zbar_image_create
    main.o(i.Zbar_Test) refers to image.o(i.zbar_image_set_format) for zbar_image_set_format
    main.o(i.Zbar_Test) refers to image.o(i.zbar_image_set_size) for zbar_image_set_size
    main.o(i.Zbar_Test) refers to image.o(i.zbar_image_set_data) for zbar_image_set_data
    main.o(i.Zbar_Test) refers to img_scanner.o(i.zbar_scan_image) for zbar_scan_image
    main.o(i.Zbar_Test) refers to led.o(i.LED4_ON) for LED4_ON
    main.o(i.Zbar_Test) refers to led.o(i.LED5_ON) for LED5_ON
    main.o(i.Zbar_Test) refers to printf8.o(i.__0printf$8) for __2printf
    main.o(i.Zbar_Test) refers to image.o(i.zbar_image_first_symbol) for zbar_image_first_symbol
    main.o(i.Zbar_Test) refers to symbol.o(i.zbar_symbol_get_type) for zbar_symbol_get_type
    main.o(i.Zbar_Test) refers to symbol.o(i.zbar_symbol_get_data) for zbar_symbol_get_data
    main.o(i.Zbar_Test) refers to symbol.o(i.zbar_get_symbol_name) for zbar_get_symbol_name
    main.o(i.Zbar_Test) refers to strcmp.o(.text) for strcmp
    main.o(i.Zbar_Test) refers to led.o(i.buzzle6_ON) for buzzle6_ON
    main.o(i.Zbar_Test) refers to init.o(i.Serial_SendString2) for Serial_SendString2
    main.o(i.Zbar_Test) refers to init.o(i.Serial_SendString4) for Serial_SendString4
    main.o(i.Zbar_Test) refers to symbol.o(i.zbar_symbol_next) for zbar_symbol_next
    main.o(i.Zbar_Test) refers to image.o(i.zbar_image_destroy) for zbar_image_destroy
    main.o(i.Zbar_Test) refers to img_scanner.o(i.zbar_image_scanner_destroy) for zbar_image_scanner_destroy
    main.o(i.Zbar_Test) refers to main.o(.ARM.__AT_0x68106F80) for data_buf
    main.o(i.Zbar_Test) refers to image.o(i.zbar_image_free_data) for zbar_image_free_data
    main.o(i.camera_refresh) refers to lcd.o(i.LCD_direction) for LCD_direction
    main.o(i.camera_refresh) refers to lcd.o(i.LCD_SetWindows) for LCD_SetWindows
    main.o(i.camera_refresh) refers to stm32f10x_gpio.o(i.GPIO_ResetBits) for GPIO_ResetBits
    main.o(i.camera_refresh) refers to stm32f10x_gpio.o(i.GPIO_SetBits) for GPIO_SetBits
    main.o(i.camera_refresh) refers to lcd.o(i.Lcd_WriteData_16Bit) for Lcd_WriteData_16Bit
    main.o(i.camera_refresh) refers to main.o(.data) for ov_sta
    main.o(i.camera_refresh) refers to main.o(.ARM.__AT_0x68106F80) for data_buf
    main.o(i.main) refers to init.o(i.GPIO_Config) for GPIO_Config
    main.o(i.main) refers to init.o(i.USART_Config) for USART_Config
    main.o(i.main) refers to init.o(i.Systick_Config) for Systick_Config
    main.o(i.main) refers to buzzle.o(i.Buzzle_Init) for Buzzle_Init
    main.o(i.main) refers to system_stm32f10x.o(i.SystemInit) for SystemInit
    main.o(i.main) refers to lcd.o(i.LCD_Init) for LCD_Init
    main.o(i.main) refers to lcd.o(i.LCD_Clear) for LCD_Clear
    main.o(i.main) refers to ov7670.o(i.OV7670_Init) for OV7670_Init
    main.o(i.main) refers to init.o(i.delay_ms) for delay_ms
    main.o(i.main) refers to ov7670.o(i.OV7670_Light_Mode) for OV7670_Light_Mode
    main.o(i.main) refers to ov7670.o(i.OV7670_Color_Saturation) for OV7670_Color_Saturation
    main.o(i.main) refers to ov7670.o(i.OV7670_Brightness) for OV7670_Brightness
    main.o(i.main) refers to ov7670.o(i.OV7670_Contrast) for OV7670_Contrast
    main.o(i.main) refers to ov7670.o(i.OV7670_Special_Effects) for OV7670_Special_Effects
    main.o(i.main) refers to main.o(i.EXTI7_Init) for EXTI7_Init
    main.o(i.main) refers to init.o(i.UART4_Init) for UART4_Init
    main.o(i.main) refers to init.o(i.USART2_Init) for USART2_Init
    main.o(i.main) refers to led.o(i.LED_Init) for LED_Init
    main.o(i.main) refers to sram.o(i.FSMC_SRAM_Init) for FSMC_SRAM_Init
    main.o(i.main) refers to malloc.o(i.my_mem_init) for my_mem_init
    main.o(i.main) refers to led.o(i.LED0_ON) for LED0_ON
    main.o(i.main) refers to led.o(i.LED4_OFF) for LED4_OFF
    main.o(i.main) refers to led.o(i.LED5_OFF) for LED5_OFF
    main.o(i.main) refers to led.o(i.buzzle6_OFF) for buzzle6_OFF
    main.o(i.main) refers to main.o(i.Zbar_Test) for Zbar_Test
    main.o(i.main) refers to my_stm32f10x_exti.o(i.EXTI_ClearITPendingBit) for EXTI_ClearITPendingBit
    main.o(i.main) refers to main.o(i.camera_refresh) for camera_refresh
    main.o(i.main) refers to main.o(.data) for ov_sta
    init.o(i.GPIO_Config) refers to stm32f10x_rcc.o(i.RCC_APB2PeriphClockCmd) for RCC_APB2PeriphClockCmd
    init.o(i.GPIO_Config) refers to stm32f10x_gpio.o(i.GPIO_Init) for GPIO_Init
    init.o(i.GPIO_Config) refers to stm32f10x_gpio.o(i.GPIO_SetBits) for GPIO_SetBits
    init.o(i.Serial_SendArray2) refers to init.o(i.Serial_SendByte2) for Serial_SendByte2
    init.o(i.Serial_SendArray4) refers to init.o(i.Serial_SendByte4) for Serial_SendByte4
    init.o(i.Serial_SendByte2) refers to stm32f10x_usart.o(i.USART_SendData) for USART_SendData
    init.o(i.Serial_SendByte2) refers to stm32f10x_usart.o(i.USART_GetFlagStatus) for USART_GetFlagStatus
    init.o(i.Serial_SendByte4) refers to stm32f10x_usart.o(i.USART_SendData) for USART_SendData
    init.o(i.Serial_SendByte4) refers to stm32f10x_usart.o(i.USART_GetFlagStatus) for USART_GetFlagStatus
    init.o(i.Serial_SendString2) refers to init.o(i.Serial_SendByte2) for Serial_SendByte2
    init.o(i.Serial_SendString4) refers to init.o(i.Serial_SendByte4) for Serial_SendByte4
    init.o(i.Systick_Config) refers to misc.o(i.SysTick_CLKSourceConfig) for SysTick_CLKSourceConfig
    init.o(i.Systick_Config) refers to init.o(.data) for fac_us
    init.o(i.UART4_Init) refers to stm32f10x_rcc.o(i.RCC_APB1PeriphClockCmd) for RCC_APB1PeriphClockCmd
    init.o(i.UART4_Init) refers to stm32f10x_rcc.o(i.RCC_APB2PeriphClockCmd) for RCC_APB2PeriphClockCmd
    init.o(i.UART4_Init) refers to stm32f10x_gpio.o(i.GPIO_Init) for GPIO_Init
    init.o(i.UART4_Init) refers to stm32f10x_usart.o(i.USART_Init) for USART_Init
    init.o(i.UART4_Init) refers to stm32f10x_usart.o(i.USART_Cmd) for USART_Cmd
    init.o(i.USART2_Init) refers to stm32f10x_rcc.o(i.RCC_APB1PeriphClockCmd) for RCC_APB1PeriphClockCmd
    init.o(i.USART2_Init) refers to stm32f10x_rcc.o(i.RCC_APB2PeriphClockCmd) for RCC_APB2PeriphClockCmd
    init.o(i.USART2_Init) refers to stm32f10x_gpio.o(i.GPIO_Init) for GPIO_Init
    init.o(i.USART2_Init) refers to stm32f10x_usart.o(i.USART_Init) for USART_Init
    init.o(i.USART2_Init) refers to stm32f10x_usart.o(i.USART_Cmd) for USART_Cmd
    init.o(i.USART_Config) refers to stm32f10x_rcc.o(i.RCC_APB2PeriphClockCmd) for RCC_APB2PeriphClockCmd
    init.o(i.USART_Config) refers to stm32f10x_usart.o(i.USART_Init) for USART_Init
    init.o(i.USART_Config) refers to stm32f10x_gpio.o(i.GPIO_Init) for GPIO_Init
    init.o(i.USART_Config) refers to stm32f10x_usart.o(i.USART_Cmd) for USART_Cmd
    init.o(i.delay_ms) refers to init.o(.data) for fac_ms
    init.o(i.delay_us) refers to init.o(.data) for fac_us
    sram.o(i.FSMC_SRAM_Init) refers to stm32f10x_rcc.o(i.RCC_APB2PeriphClockCmd) for RCC_APB2PeriphClockCmd
    sram.o(i.FSMC_SRAM_Init) refers to stm32f10x_rcc.o(i.RCC_AHBPeriphClockCmd) for RCC_AHBPeriphClockCmd
    sram.o(i.FSMC_SRAM_Init) refers to stm32f10x_gpio.o(i.GPIO_Init) for GPIO_Init
    sram.o(i.FSMC_SRAM_Init) refers to stm32f10x_fsmc.o(i.FSMC_NORSRAMInit) for FSMC_NORSRAMInit
    sram.o(i.FSMC_SRAM_Init) refers to stm32f10x_fsmc.o(i.FSMC_NORSRAMCmd) for FSMC_NORSRAMCmd
    malloc.o(i.my_mem_free) refers to malloc.o(.data) for malloc_cortol
    malloc.o(i.my_mem_free) refers to malloc.o(.constdata) for memsize
    malloc.o(i.my_mem_init) refers to malloc.o(i.mymemset) for mymemset
    malloc.o(i.my_mem_init) refers to malloc.o(.constdata) for memtblsize
    malloc.o(i.my_mem_init) refers to malloc.o(.data) for malloc_cortol
    malloc.o(i.my_mem_malloc) refers to malloc.o(.data) for malloc_cortol
    malloc.o(i.my_mem_malloc) refers to malloc.o(.constdata) for memblksize
    malloc.o(i.my_mem_perused) refers to malloc.o(.data) for malloc_cortol
    malloc.o(i.my_mem_perused) refers to malloc.o(.constdata) for memtblsize
    malloc.o(i.myfree) refers to malloc.o(i.my_mem_free) for my_mem_free
    malloc.o(i.myfree) refers to malloc.o(.data) for malloc_cortol
    malloc.o(i.mymalloc) refers to malloc.o(i.my_mem_malloc) for my_mem_malloc
    malloc.o(i.mymalloc) refers to malloc.o(.data) for malloc_cortol
    malloc.o(i.myrealloc) refers to malloc.o(i.my_mem_malloc) for my_mem_malloc
    malloc.o(i.myrealloc) refers to malloc.o(i.mymemcpy) for mymemcpy
    malloc.o(i.myrealloc) refers to malloc.o(i.myfree) for myfree
    malloc.o(i.myrealloc) refers to malloc.o(.data) for malloc_cortol
    malloc.o(.data) refers to malloc.o(i.my_mem_init) for my_mem_init
    malloc.o(.data) refers to malloc.o(i.my_mem_perused) for my_mem_perused
    malloc.o(.data) refers to malloc.o(.bss) for mem1base
    malloc.o(.data) refers to malloc.o(.ARM.__AT_0x68000000) for mem2base
    malloc.o(.data) refers to malloc.o(.ARM.__AT_0x680F7800) for mem2mapbase
    config.o(i.zbar_parse_config) refers to strchr.o(.text) for strchr
    config.o(i.zbar_parse_config) refers to strncmp.o(.text) for strncmp
    config.o(i.zbar_parse_config) refers to strlen.o(.text) for strlen
    config.o(i.zbar_parse_config) refers to errno.o(i.__aeabi_errno_addr) for __aeabi_errno_addr
    config.o(i.zbar_parse_config) refers to strtol.o(.text) for strtol
    decoder.o(i._zbar_decoder_buf_dump) refers to zbar_config.o(i.Zbar_free) for Zbar_free
    decoder.o(i._zbar_decoder_buf_dump) refers to zbar_config.o(i.Zbar_malloc) for Zbar_malloc
    decoder.o(i._zbar_decoder_buf_dump) refers to printf8.o(i.__0snprintf$8) for __2snprintf
    decoder.o(i._zbar_decoder_buf_dump) refers to decoder.o(.data) for decoder_dump
    decoder.o(i.zbar_decode_width) refers to qr_finder.o(i._zbar_find_qr) for _zbar_find_qr
    decoder.o(i.zbar_decoder_create) refers to zbar_config.o(i.Zbar_calloc) for Zbar_calloc
    decoder.o(i.zbar_decoder_create) refers to printf8.o(i.__0printf$8) for __2printf
    decoder.o(i.zbar_decoder_create) refers to zbar_config.o(i.Zbar_malloc) for Zbar_malloc
    decoder.o(i.zbar_decoder_create) refers to decoder.o(i.zbar_decoder_reset) for zbar_decoder_reset
    decoder.o(i.zbar_decoder_destroy) refers to zbar_config.o(i.Zbar_free) for Zbar_free
    decoder.o(i.zbar_decoder_new_scan) refers to zbar_config.o(i.Zbar_memset) for Zbar_memset
    decoder.o(i.zbar_decoder_reset) refers to zbar_config.o(i.Zbar_memset) for Zbar_memset
    decoder.o(i.zbar_decoder_set_config) refers to decoder.o(i.decoder_set_config_bool) for decoder_set_config_bool
    image.o(i._zbar_image_free) refers to symbol.o(i.zbar_symbol_set_ref) for zbar_symbol_set_ref
    image.o(i._zbar_image_free) refers to zbar_config.o(i.Zbar_free) for Zbar_free
    image.o(i._zbar_image_refcnt) refers to image.o(i._zbar_image_free) for _zbar_image_free
    image.o(i.zbar_image_copy) refers to image.o(i.zbar_image_create) for zbar_image_create
    image.o(i.zbar_image_copy) refers to zbar_config.o(i.Zbar_malloc) for Zbar_malloc
    image.o(i.zbar_image_copy) refers to zbar_config.o(i.Zbar_memcpy) for Zbar_memcpy
    image.o(i.zbar_image_copy) refers to image.o(i.zbar_image_free_data) for zbar_image_free_data
    image.o(i.zbar_image_create) refers to zbar_config.o(i.Zbar_calloc) for Zbar_calloc
    image.o(i.zbar_image_create) refers to refcnt.o(i._zbar_refcnt_init) for _zbar_refcnt_init
    image.o(i.zbar_image_create) refers to image.o(i._zbar_image_refcnt) for _zbar_image_refcnt
    image.o(i.zbar_image_destroy) refers to image.o(i._zbar_image_refcnt) for _zbar_image_refcnt
    image.o(i.zbar_image_ref) refers to image.o(i._zbar_image_refcnt) for _zbar_image_refcnt
    image.o(i.zbar_image_set_data) refers to image.o(i.zbar_image_free_data) for zbar_image_free_data
    image.o(i.zbar_image_set_symbols) refers to symbol.o(i.zbar_symbol_set_ref) for zbar_symbol_set_ref
    image.o(i.zbar_image_write) refers to strlen.o(.text) for strlen
    image.o(i.zbar_image_write) refers to malloc.o(i.malloc) for malloc
    image.o(i.zbar_image_write) refers to strcpy.o(.text) for strcpy
    image.o(i.zbar_image_write) refers to printf8.o(i.__0snprintf$8) for __2snprintf
    image.o(i.zbar_image_write) refers to printf8.o(i.__0fprintf$8) for __2fprintf
    image.o(i.zbar_image_write) refers to errno.o(i.__aeabi_errno_addr) for __aeabi_errno_addr
    image.o(i.zbar_image_write) refers to strerror.o(.text) for strerror
    image.o(i.zbar_image_write) refers to malloc.o(i.free) for free
    image.o(i.zbar_image_write) refers to fwrite.o(i.fwrite) for fwrite
    image.o(i.zbar_image_write) refers to error.o(.data) for _zbar_verbosity
    image.o(i.zbar_image_write) refers to image.o(.constdata) for __func__
    image.o(i.zbar_image_write) refers to stderr.o(.data) for __stderr
    img_scanner.o(i._zbar_image_scanner_add_sym) refers to img_scanner.o(i.cache_sym) for cache_sym
    img_scanner.o(i._zbar_image_scanner_add_sym) refers to img_scanner.o(i._zbar_refcnt) for _zbar_refcnt
    img_scanner.o(i._zbar_image_scanner_add_sym) refers to symbol.o(i._zbar_symbol_free) for _zbar_symbol_free
    img_scanner.o(i._zbar_image_scanner_recycle_syms) refers to img_scanner.o(i._zbar_refcnt) for _zbar_refcnt
    img_scanner.o(i._zbar_image_scanner_recycle_syms) refers to symbol.o(i._zbar_symbol_set_free) for _zbar_symbol_set_free
    img_scanner.o(i._zbar_image_scanner_recycle_syms) refers to zbar_config.o(i.Zbar_free) for Zbar_free
    img_scanner.o(i.cache_lookup) refers to memcmp.o(.text) for memcmp
    img_scanner.o(i.cache_lookup) refers to img_scanner.o(i._zbar_image_scanner_recycle_syms) for _zbar_image_scanner_recycle_syms
    img_scanner.o(i.cache_sym) refers to img_scanner.o(i.cache_lookup) for cache_lookup
    img_scanner.o(i.cache_sym) refers to img_scanner.o(i._zbar_image_scanner_alloc_sym) for _zbar_image_scanner_alloc_sym
    img_scanner.o(i.cache_sym) refers to zbar_config.o(i.Zbar_memcpy) for Zbar_memcpy
    img_scanner.o(i.dump_stats) refers to printf8.o(i.__0fprintf$8) for __2fprintf
    img_scanner.o(i.dump_stats) refers to error.o(.data) for _zbar_verbosity
    img_scanner.o(i.dump_stats) refers to img_scanner.o(.constdata) for __func__
    img_scanner.o(i.dump_stats) refers to stderr.o(.data) for __stderr
    img_scanner.o(i.qr_handler) refers to qr_finder.o(i._zbar_decoder_get_qr_finder_line) for _zbar_decoder_get_qr_finder_line
    img_scanner.o(i.qr_handler) refers to scanner.o(i.zbar_scanner_get_edge) for zbar_scanner_get_edge
    img_scanner.o(i.qr_handler) refers to qrdec.o(i._zbar_qr_found_line) for _zbar_qr_found_line
    img_scanner.o(i.quiet_border) refers to scanner.o(i.zbar_scanner_flush) for zbar_scanner_flush
    img_scanner.o(i.quiet_border) refers to scanner.o(i.zbar_scanner_new_scan) for zbar_scanner_new_scan
    img_scanner.o(i.recycle_syms) refers to img_scanner.o(i._zbar_refcnt) for _zbar_refcnt
    img_scanner.o(i.recycle_syms) refers to img_scanner.o(i._zbar_image_scanner_recycle_syms) for _zbar_image_scanner_recycle_syms
    img_scanner.o(i.sym_add_point) refers to zbar_config.o(i.Zbar_realloc) for Zbar_realloc
    img_scanner.o(i.symbol_handler) refers to decoder.o(i.zbar_decoder_get_userdata) for zbar_decoder_get_userdata
    img_scanner.o(i.symbol_handler) refers to decoder.o(i.zbar_decoder_get_type) for zbar_decoder_get_type
    img_scanner.o(i.symbol_handler) refers to img_scanner.o(i.qr_handler) for qr_handler
    img_scanner.o(i.symbol_handler) refers to decoder.o(i.zbar_decoder_get_data) for zbar_decoder_get_data
    img_scanner.o(i.symbol_handler) refers to decoder.o(i.zbar_decoder_get_data_length) for zbar_decoder_get_data_length
    img_scanner.o(i.symbol_handler) refers to scanner.o(i.zbar_scanner_get_width) for zbar_scanner_get_width
    img_scanner.o(i.symbol_handler) refers to scanner.o(i.zbar_scanner_get_edge) for zbar_scanner_get_edge
    img_scanner.o(i.symbol_handler) refers to memcmp.o(.text) for memcmp
    img_scanner.o(i.symbol_handler) refers to img_scanner.o(i.sym_add_point) for sym_add_point
    img_scanner.o(i.symbol_handler) refers to img_scanner.o(i._zbar_image_scanner_alloc_sym) for _zbar_image_scanner_alloc_sym
    img_scanner.o(i.symbol_handler) refers to zbar_config.o(i.Zbar_memcpy) for Zbar_memcpy
    img_scanner.o(i.symbol_handler) refers to img_scanner.o(i._zbar_image_scanner_add_sym) for _zbar_image_scanner_add_sym
    img_scanner.o(i.zbar_image_scanner_create) refers to zbar_config.o(i.Zbar_calloc) for Zbar_calloc
    img_scanner.o(i.zbar_image_scanner_create) refers to printf8.o(i.__0printf$8) for __2printf
    img_scanner.o(i.zbar_image_scanner_create) refers to decoder.o(i.zbar_decoder_create) for zbar_decoder_create
    img_scanner.o(i.zbar_image_scanner_create) refers to scanner.o(i.zbar_scanner_create) for zbar_scanner_create
    img_scanner.o(i.zbar_image_scanner_create) refers to img_scanner.o(i.zbar_image_scanner_destroy) for zbar_image_scanner_destroy
    img_scanner.o(i.zbar_image_scanner_create) refers to decoder.o(i.zbar_decoder_set_userdata) for zbar_decoder_set_userdata
    img_scanner.o(i.zbar_image_scanner_create) refers to decoder.o(i.zbar_decoder_set_handler) for zbar_decoder_set_handler
    img_scanner.o(i.zbar_image_scanner_create) refers to qrdec.o(i._zbar_qr_create) for _zbar_qr_create
    img_scanner.o(i.zbar_image_scanner_create) refers to img_scanner.o(i.zbar_image_scanner_set_config) for zbar_image_scanner_set_config
    img_scanner.o(i.zbar_image_scanner_create) refers to img_scanner.o(i.symbol_handler) for symbol_handler
    img_scanner.o(i.zbar_image_scanner_destroy) refers to img_scanner.o(i.dump_stats) for dump_stats
    img_scanner.o(i.zbar_image_scanner_destroy) refers to symbol.o(i.zbar_symbol_set_ref) for zbar_symbol_set_ref
    img_scanner.o(i.zbar_image_scanner_destroy) refers to symbol.o(i._zbar_symbol_set_free) for _zbar_symbol_set_free
    img_scanner.o(i.zbar_image_scanner_destroy) refers to scanner.o(i.zbar_scanner_destroy) for zbar_scanner_destroy
    img_scanner.o(i.zbar_image_scanner_destroy) refers to decoder.o(i.zbar_decoder_destroy) for zbar_decoder_destroy
    img_scanner.o(i.zbar_image_scanner_destroy) refers to symbol.o(i._zbar_symbol_free) for _zbar_symbol_free
    img_scanner.o(i.zbar_image_scanner_destroy) refers to qrdec.o(i._zbar_qr_destroy) for _zbar_qr_destroy
    img_scanner.o(i.zbar_image_scanner_destroy) refers to zbar_config.o(i.Zbar_free) for Zbar_free
    img_scanner.o(i.zbar_image_scanner_enable_cache) refers to img_scanner.o(i._zbar_image_scanner_recycle_syms) for _zbar_image_scanner_recycle_syms
    img_scanner.o(i.zbar_image_scanner_set_config) refers to decoder.o(i.zbar_decoder_set_config) for zbar_decoder_set_config
    img_scanner.o(i.zbar_scan_image) refers to qrdec.o(i._zbar_qr_reset) for _zbar_qr_reset
    img_scanner.o(i.zbar_scan_image) refers to img_scanner.o(i.zbar_image_scanner_recycle_image) for zbar_image_scanner_recycle_image
    img_scanner.o(i.zbar_scan_image) refers to symbol.o(i._zbar_symbol_set_create) for _zbar_symbol_set_create
    img_scanner.o(i.zbar_scan_image) refers to symbol.o(i.zbar_symbol_set_ref) for zbar_symbol_set_ref
    img_scanner.o(i.zbar_scan_image) refers to scanner.o(i.zbar_scanner_new_scan) for zbar_scanner_new_scan
    img_scanner.o(i.zbar_scan_image) refers to printf8.o(i.__0fprintf$8) for __2fprintf
    img_scanner.o(i.zbar_scan_image) refers to scanner.o(i.zbar_scan_y) for zbar_scan_y
    img_scanner.o(i.zbar_scan_image) refers to img_scanner.o(i.quiet_border) for quiet_border
    img_scanner.o(i.zbar_scan_image) refers to qrdec.o(i._zbar_qr_decode) for _zbar_qr_decode
    img_scanner.o(i.zbar_scan_image) refers to img_scanner.o(i._zbar_image_scanner_recycle_syms) for _zbar_image_scanner_recycle_syms
    img_scanner.o(i.zbar_scan_image) refers to error.o(.data) for _zbar_verbosity
    img_scanner.o(i.zbar_scan_image) refers to img_scanner.o(.constdata) for __func__
    img_scanner.o(i.zbar_scan_image) refers to stderr.o(.data) for __stderr
    scanner.o(i.process_edge) refers to decoder.o(i.zbar_decode_width) for zbar_decode_width
    scanner.o(i.zbar_scan_y) refers to scanner.o(i.calc_thresh) for calc_thresh
    scanner.o(i.zbar_scan_y) refers to scanner.o(i.process_edge) for process_edge
    scanner.o(i.zbar_scanner_create) refers to zbar_config.o(i.Zbar_malloc) for Zbar_malloc
    scanner.o(i.zbar_scanner_create) refers to scanner.o(i.zbar_scanner_reset) for zbar_scanner_reset
    scanner.o(i.zbar_scanner_destroy) refers to zbar_config.o(i.Zbar_free) for Zbar_free
    scanner.o(i.zbar_scanner_get_state) refers to scanner.o(i.calc_thresh) for calc_thresh
    scanner.o(i.zbar_scanner_new_scan) refers to scanner.o(i.zbar_scanner_flush) for zbar_scanner_flush
    scanner.o(i.zbar_scanner_new_scan) refers to zbar_config.o(i.Zbar_memset) for Zbar_memset
    scanner.o(i.zbar_scanner_new_scan) refers to decoder.o(i.zbar_decoder_new_scan) for zbar_decoder_new_scan
    scanner.o(i.zbar_scanner_reset) refers to zbar_config.o(i.Zbar_memset) for Zbar_memset
    scanner.o(i.zbar_scanner_reset) refers to decoder.o(i.zbar_decoder_reset) for zbar_decoder_reset
    symbol.o(i._zbar_symbol_free) refers to symbol.o(i.zbar_symbol_set_ref) for zbar_symbol_set_ref
    symbol.o(i._zbar_symbol_free) refers to zbar_config.o(i.Zbar_free) for Zbar_free
    symbol.o(i._zbar_symbol_refcnt) refers to symbol.o(i._zbar_refcnt) for _zbar_refcnt
    symbol.o(i._zbar_symbol_refcnt) refers to symbol.o(i._zbar_symbol_free) for _zbar_symbol_free
    symbol.o(i._zbar_symbol_set_create) refers to zbar_config.o(i.Zbar_calloc) for Zbar_calloc
    symbol.o(i._zbar_symbol_set_create) refers to symbol.o(i._zbar_refcnt) for _zbar_refcnt
    symbol.o(i.zbar_symbol_ref) refers to symbol.o(i._zbar_symbol_refcnt) for _zbar_symbol_refcnt
    symbol.o(i.zbar_symbol_set_ref) refers to symbol.o(i._zbar_refcnt) for _zbar_refcnt
    symbol.o(i.zbar_symbol_set_ref) refers to symbol.o(i._zbar_symbol_set_free) for _zbar_symbol_set_free
    symbol.o(i.zbar_symbol_xml) refers to symbol.o(i.zbar_get_symbol_name) for zbar_get_symbol_name
    symbol.o(i.zbar_symbol_xml) refers to strlen.o(.text) for strlen
    symbol.o(i.zbar_symbol_xml) refers to zbar_config.o(i.Zbar_free) for Zbar_free
    symbol.o(i.zbar_symbol_xml) refers to zbar_config.o(i.Zbar_malloc) for Zbar_malloc
    symbol.o(i.zbar_symbol_xml) refers to printf8.o(i.__0snprintf$8) for __2snprintf
    symbol.o(i.zbar_symbol_xml) refers to zbar_config.o(i.Zbar_memcpy) for Zbar_memcpy
    symbol.o(i.zbar_symbol_xml) refers to strncpy.o(.text) for strncpy
    symbol.o(i.zbar_symbol_xml) refers to symbol.o(.data) for xmlfmt
    symbol.o(.data) refers to symbol.o(.conststring) for .conststring
    error.o(i._zbar_error_spew) refers to error.o(i._zbar_error_string) for _zbar_error_string
    error.o(i._zbar_error_spew) refers to printf8.o(i.__0fprintf$8) for __2fprintf
    error.o(i._zbar_error_spew) refers to stderr.o(.data) for __stderr
    error.o(i._zbar_error_string) refers to memmovea.o(.text) for __aeabi_memcpy4
    error.o(i._zbar_error_string) refers to strlen.o(.text) for strlen
    error.o(i._zbar_error_string) refers to zbar_config.o(i.Zbar_realloc) for Zbar_realloc
    error.o(i._zbar_error_string) refers to printf8.o(i.__0sprintf$8) for __2sprintf
    error.o(i._zbar_error_string) refers to strstr.o(.text) for strstr
    error.o(i._zbar_error_string) refers to strerror.o(.text) for strerror
    error.o(i._zbar_error_string) refers to error.o(.constdata) for sev_str
    error.o(i._zbar_error_string) refers to error.o(.data) for err_str
    error.o(i.zbar_increase_verbosity) refers to error.o(.data) for _zbar_verbosity
    error.o(i.zbar_set_verbosity) refers to error.o(.data) for _zbar_verbosity
    error.o(.constdata) refers to error.o(.conststring) for .conststring
    error.o(.data) refers to error.o(.conststring) for .conststring
    zbar_config.o(i.Zbar_calloc) refers to malloc.o(i.mymalloc) for mymalloc
    zbar_config.o(i.Zbar_calloc) refers to malloc.o(i.mymemset) for mymemset
    zbar_config.o(i.Zbar_free) refers to malloc.o(i.myfree) for myfree
    zbar_config.o(i.Zbar_malloc) refers to malloc.o(i.mymalloc) for mymalloc
    zbar_config.o(i.Zbar_memcpy) refers to malloc.o(i.mymemcpy) for mymemcpy
    zbar_config.o(i.Zbar_memset) refers to malloc.o(i.mymemset) for mymemset
    zbar_config.o(i.Zbar_realloc) refers to malloc.o(i.myrealloc) for myrealloc
    bch15_5.o(i.bch15_5_calc_epos) refers to bch15_5.o(i.bch15_5_calc_omega) for bch15_5_calc_omega
    bch15_5.o(i.bch15_5_calc_epos) refers to bch15_5.o(i.gf16_hmul) for gf16_hmul
    bch15_5.o(i.bch15_5_calc_epos) refers to bch15_5.o(.constdata) for gf16_log
    bch15_5.o(i.bch15_5_calc_omega) refers to bch15_5.o(i.gf16_mul) for gf16_mul
    bch15_5.o(i.bch15_5_calc_omega) refers to bch15_5.o(i.gf16_div) for gf16_div
    bch15_5.o(i.bch15_5_calc_syndrome) refers to bch15_5.o(.constdata) for gf16_exp
    bch15_5.o(i.bch15_5_correct) refers to bch15_5.o(i.bch15_5_calc_syndrome) for bch15_5_calc_syndrome
    bch15_5.o(i.bch15_5_correct) refers to bch15_5.o(i.bch15_5_calc_epos) for bch15_5_calc_epos
    bch15_5.o(i.bch15_5_correct) refers to bch15_5.o(i.bch15_5_encode) for bch15_5_encode
    bch15_5.o(i.gf16_div) refers to bch15_5.o(.constdata) for gf16_log
    bch15_5.o(i.gf16_hmul) refers to bch15_5.o(.constdata) for gf16_log
    bch15_5.o(i.gf16_mul) refers to bch15_5.o(.constdata) for gf16_log
    binarize.o(i.qr_binarize) refers to zbar_config.o(i.Zbar_malloc) for Zbar_malloc
    binarize.o(i.qr_binarize) refers to zbar_config.o(i.Zbar_free) for Zbar_free
    isaac.o(i.isaac_init) refers to isaac.o(i.isaac_mix) for isaac_mix
    isaac.o(i.isaac_init) refers to zbar_config.o(i.Zbar_memset) for Zbar_memset
    isaac.o(i.isaac_init) refers to zbar_config.o(i.Zbar_memcpy) for Zbar_memcpy
    isaac.o(i.isaac_init) refers to isaac.o(i.isaac_update) for isaac_update
    isaac.o(i.isaac_mix) refers to isaac.o(.constdata) for SHIFT
    isaac.o(i.isaac_next_uint) refers to isaac.o(i.isaac_next_uint32) for isaac_next_uint32
    isaac.o(i.isaac_next_uint32) refers to isaac.o(i.isaac_update) for isaac_update
    qrdec.o(i._zbar_qr_create) refers to zbar_config.o(i.Zbar_calloc) for Zbar_calloc
    qrdec.o(i._zbar_qr_create) refers to qrdec.o(i.qr_reader_init) for qr_reader_init
    qrdec.o(i._zbar_qr_decode) refers to qrdec.o(i.qr_finder_centers_locate) for qr_finder_centers_locate
    qrdec.o(i._zbar_qr_decode) refers to printf8.o(i.__0fprintf$8) for __2fprintf
    qrdec.o(i._zbar_qr_decode) refers to binarize.o(i.qr_binarize) for qr_binarize
    qrdec.o(i._zbar_qr_decode) refers to qrdec.o(i.qr_code_data_list_init) for qr_code_data_list_init
    qrdec.o(i._zbar_qr_decode) refers to qrdec.o(i.qr_reader_match_centers) for qr_reader_match_centers
    qrdec.o(i._zbar_qr_decode) refers to qrdectxt.o(i.qr_code_data_list_extract_text) for qr_code_data_list_extract_text
    qrdec.o(i._zbar_qr_decode) refers to qrdec.o(i.qr_code_data_list_clear) for qr_code_data_list_clear
    qrdec.o(i._zbar_qr_decode) refers to zbar_config.o(i.Zbar_free) for Zbar_free
    qrdec.o(i._zbar_qr_decode) refers to error.o(.data) for _zbar_verbosity
    qrdec.o(i._zbar_qr_decode) refers to qrdec.o(.constdata) for __func__
    qrdec.o(i._zbar_qr_decode) refers to stderr.o(.data) for __stderr
    qrdec.o(i._zbar_qr_destroy) refers to printf8.o(i.__0fprintf$8) for __2fprintf
    qrdec.o(i._zbar_qr_destroy) refers to zbar_config.o(i.Zbar_free) for Zbar_free
    qrdec.o(i._zbar_qr_destroy) refers to error.o(.data) for _zbar_verbosity
    qrdec.o(i._zbar_qr_destroy) refers to qrdec.o(.constdata) for __func__
    qrdec.o(i._zbar_qr_destroy) refers to stderr.o(.data) for __stderr
    qrdec.o(i._zbar_qr_found_line) refers to zbar_config.o(i.Zbar_realloc) for Zbar_realloc
    qrdec.o(i._zbar_qr_found_line) refers to zbar_config.o(i.Zbar_memcpy) for Zbar_memcpy
    qrdec.o(i.bch18_6_correct) refers to qrdec.o(i.qr_hamming_dist) for qr_hamming_dist
    qrdec.o(i.bch18_6_correct) refers to qrdec.o(.constdata) for BCH18_6_CODES
    qrdec.o(i.qr_aff_init) refers to qrdec.o(i.qr_point_ccw) for qr_point_ccw
    qrdec.o(i.qr_aff_line_step) refers to util.o(i.qr_ilog) for qr_ilog
    qrdec.o(i.qr_alignment_pattern_fetch) refers to qrdec.o(i.qr_img_get_bit) for qr_img_get_bit
    qrdec.o(i.qr_alignment_pattern_search) refers to qrdec.o(i.qr_hom_cell_fproject) for qr_hom_cell_fproject
    qrdec.o(i.qr_alignment_pattern_search) refers to qrdec.o(i.qr_alignment_pattern_fetch) for qr_alignment_pattern_fetch
    qrdec.o(i.qr_alignment_pattern_search) refers to qrdec.o(i.qr_hamming_dist) for qr_hamming_dist
    qrdec.o(i.qr_alignment_pattern_search) refers to zbar_config.o(i.Zbar_memset) for Zbar_memset
    qrdec.o(i.qr_alignment_pattern_search) refers to qrdec.o(i.qr_finder_locate_crossing) for qr_finder_locate_crossing
    qrdec.o(i.qr_alignment_pattern_search) refers to qrdec.o(.constdata) for MASK_TESTS
    qrdec.o(i.qr_code_data_clear) refers to zbar_config.o(i.Zbar_free) for Zbar_free
    qrdec.o(i.qr_code_data_list_add) refers to zbar_config.o(i.Zbar_realloc) for Zbar_realloc
    qrdec.o(i.qr_code_data_list_add) refers to zbar_config.o(i.Zbar_memcpy) for Zbar_memcpy
    qrdec.o(i.qr_code_data_list_clear) refers to qrdec.o(i.qr_code_data_clear) for qr_code_data_clear
    qrdec.o(i.qr_code_data_list_clear) refers to zbar_config.o(i.Zbar_free) for Zbar_free
    qrdec.o(i.qr_code_data_list_clear) refers to qrdec.o(i.qr_code_data_list_init) for qr_code_data_list_init
    qrdec.o(i.qr_code_data_parse) refers to qrdec.o(i.qr_pack_buf_init) for qr_pack_buf_init
    qrdec.o(i.qr_code_data_parse) refers to qrdec.o(i.qr_pack_buf_read) for qr_pack_buf_read
    qrdec.o(i.qr_code_data_parse) refers to zbar_config.o(i.Zbar_realloc) for Zbar_realloc
    qrdec.o(i.qr_code_data_parse) refers to qrdec.o(i.qr_pack_buf_avail) for qr_pack_buf_avail
    qrdec.o(i.qr_code_data_parse) refers to zbar_config.o(i.Zbar_malloc) for Zbar_malloc
    qrdec.o(i.qr_code_data_parse) refers to qrdec.o(.constdata) for LEN_BITS
    qrdec.o(i.qr_code_decode) refers to qrdec.o(i.qr_sampling_grid_init) for qr_sampling_grid_init
    qrdec.o(i.qr_code_decode) refers to zbar_config.o(i.Zbar_malloc) for Zbar_malloc
    qrdec.o(i.qr_code_decode) refers to qrdec.o(i.qr_sampling_grid_sample) for qr_sampling_grid_sample
    qrdec.o(i.qr_code_decode) refers to qrdec.o(i.qr_code_ncodewords) for qr_code_ncodewords
    qrdec.o(i.qr_code_decode) refers to qrdec.o(i.qr_samples_unpack) for qr_samples_unpack
    qrdec.o(i.qr_code_decode) refers to qrdec.o(i.qr_sampling_grid_clear) for qr_sampling_grid_clear
    qrdec.o(i.qr_code_decode) refers to zbar_config.o(i.Zbar_free) for Zbar_free
    qrdec.o(i.qr_code_decode) refers to rs.o(i.rs_correct) for rs_correct
    qrdec.o(i.qr_code_decode) refers to memmovea.o(.text) for __aeabi_memmove
    qrdec.o(i.qr_code_decode) refers to qrdec.o(i.qr_code_data_parse) for qr_code_data_parse
    qrdec.o(i.qr_code_decode) refers to qrdec.o(i.qr_code_data_clear) for qr_code_data_clear
    qrdec.o(i.qr_code_decode) refers to qrdec.o(.constdata) for QR_RS_NBLOCKS
    qrdec.o(i.qr_data_mask_fill) refers to zbar_config.o(i.Zbar_memset) for Zbar_memset
    qrdec.o(i.qr_finder_centers_locate) refers to zbar_config.o(i.Zbar_malloc) for Zbar_malloc
    qrdec.o(i.qr_finder_centers_locate) refers to qrdec.o(i.qr_finder_cluster_lines) for qr_finder_cluster_lines
    qrdec.o(i.qr_finder_centers_locate) refers to qsort.o(.text) for qsort
    qrdec.o(i.qr_finder_centers_locate) refers to qrdec.o(i.qr_finder_find_crossings) for qr_finder_find_crossings
    qrdec.o(i.qr_finder_centers_locate) refers to zbar_config.o(i.Zbar_free) for Zbar_free
    qrdec.o(i.qr_finder_centers_locate) refers to qrdec.o(i.qr_finder_vline_cmp) for qr_finder_vline_cmp
    qrdec.o(i.qr_finder_cluster_lines) refers to zbar_config.o(i.Zbar_calloc) for Zbar_calloc
    qrdec.o(i.qr_finder_cluster_lines) refers to zbar_config.o(i.Zbar_free) for Zbar_free
    qrdec.o(i.qr_finder_edge_pts_aff_classify) refers to qrdec.o(i.qr_aff_unproject) for qr_aff_unproject
    qrdec.o(i.qr_finder_edge_pts_aff_classify) refers to qrdec.o(i.qr_point_translate) for qr_point_translate
    qrdec.o(i.qr_finder_edge_pts_aff_classify) refers to qsort.o(.text) for qsort
    qrdec.o(i.qr_finder_edge_pts_aff_classify) refers to qrdec.o(i.qr_cmp_edge_pt) for qr_cmp_edge_pt
    qrdec.o(i.qr_finder_edge_pts_hom_classify) refers to qrdec.o(i.qr_hom_unproject) for qr_hom_unproject
    qrdec.o(i.qr_finder_edge_pts_hom_classify) refers to qrdec.o(i.qr_point_translate) for qr_point_translate
    qrdec.o(i.qr_finder_edge_pts_hom_classify) refers to qsort.o(.text) for qsort
    qrdec.o(i.qr_finder_edge_pts_hom_classify) refers to qrdec.o(i.qr_cmp_edge_pt) for qr_cmp_edge_pt
    qrdec.o(i.qr_finder_find_crossings) refers to zbar_config.o(i.Zbar_malloc) for Zbar_malloc
    qrdec.o(i.qr_finder_find_crossings) refers to zbar_config.o(i.Zbar_calloc) for Zbar_calloc
    qrdec.o(i.qr_finder_find_crossings) refers to qrdec.o(i.qr_finder_lines_are_crossing) for qr_finder_lines_are_crossing
    qrdec.o(i.qr_finder_find_crossings) refers to qrdec.o(i.qr_finder_edge_pts_fill) for qr_finder_edge_pts_fill
    qrdec.o(i.qr_finder_find_crossings) refers to zbar_config.o(i.Zbar_free) for Zbar_free
    qrdec.o(i.qr_finder_find_crossings) refers to qsort.o(.text) for qsort
    qrdec.o(i.qr_finder_find_crossings) refers to qrdec.o(i.qr_finder_center_cmp) for qr_finder_center_cmp
    qrdec.o(i.qr_finder_fmt_info_decode) refers to qrdec.o(i.qr_hom_fproject) for qr_hom_fproject
    qrdec.o(i.qr_finder_fmt_info_decode) refers to qrdec.o(i.qr_img_get_bit) for qr_img_get_bit
    qrdec.o(i.qr_finder_fmt_info_decode) refers to bch15_5.o(i.bch15_5_correct) for bch15_5_correct
    qrdec.o(i.qr_finder_ransac) refers to isaac.o(i.isaac_next_uint) for isaac_next_uint
    qrdec.o(i.qr_finder_ransac) refers to qrdec.o(i.qr_aff_unproject) for qr_aff_unproject
    qrdec.o(i.qr_finder_ransac) refers to qrdec.o(i.qr_point_translate) for qr_point_translate
    qrdec.o(i.qr_finder_ransac) refers to qrdec.o(i.qr_point_distance2) for qr_point_distance2
    qrdec.o(i.qr_finder_ransac) refers to util.o(i.qr_isqrt) for qr_isqrt
    qrdec.o(i.qr_finder_ransac) refers to qrdec.o(i.qr_point_ccw) for qr_point_ccw
    qrdec.o(i.qr_finder_version_decode) refers to qrdec.o(i.qr_hom_fproject) for qr_hom_fproject
    qrdec.o(i.qr_finder_version_decode) refers to qrdec.o(i.qr_img_get_bit) for qr_img_get_bit
    qrdec.o(i.qr_finder_version_decode) refers to qrdec.o(i.bch18_6_correct) for bch18_6_correct
    qrdec.o(i.qr_hom_cell_init) refers to util.o(i.qr_ilog) for qr_ilog
    qrdec.o(i.qr_hom_cell_init) refers to llsshr.o(.text) for __aeabi_lasr
    qrdec.o(i.qr_hom_cell_project) refers to qrdec.o(i.qr_hom_cell_fproject) for qr_hom_cell_fproject
    qrdec.o(i.qr_hom_fit) refers to qrdec.o(i.qr_finder_ransac) for qr_finder_ransac
    qrdec.o(i.qr_hom_fit) refers to qrdec.o(i.qr_line_fit_finder_pair) for qr_line_fit_finder_pair
    qrdec.o(i.qr_hom_fit) refers to qrdec.o(i.qr_line_eval) for qr_line_eval
    qrdec.o(i.qr_hom_fit) refers to qrdec.o(i.qr_line_fit_finder_edge) for qr_line_fit_finder_edge
    qrdec.o(i.qr_hom_fit) refers to qrdec.o(i.qr_aff_line_step) for qr_aff_line_step
    qrdec.o(i.qr_hom_fit) refers to zbar_config.o(i.Zbar_malloc) for Zbar_malloc
    qrdec.o(i.qr_hom_fit) refers to zbar_config.o(i.Zbar_memcpy) for Zbar_memcpy
    qrdec.o(i.qr_hom_fit) refers to zbar_config.o(i.Zbar_realloc) for Zbar_realloc
    qrdec.o(i.qr_hom_fit) refers to qrdec.o(i.qr_finder_quick_crossing_check) for qr_finder_quick_crossing_check
    qrdec.o(i.qr_hom_fit) refers to qrdec.o(i.qr_finder_locate_crossing) for qr_finder_locate_crossing
    qrdec.o(i.qr_hom_fit) refers to qrdec.o(i.qr_aff_unproject) for qr_aff_unproject
    qrdec.o(i.qr_hom_fit) refers to qrdec.o(i.qr_line_fit_points) for qr_line_fit_points
    qrdec.o(i.qr_hom_fit) refers to qrdec.o(i.qr_aff_project) for qr_aff_project
    qrdec.o(i.qr_hom_fit) refers to util.o(i.qr_ilog) for qr_ilog
    qrdec.o(i.qr_hom_fit) refers to zbar_config.o(i.Zbar_free) for Zbar_free
    qrdec.o(i.qr_hom_fit) refers to qrdec.o(i.qr_line_isect) for qr_line_isect
    qrdec.o(i.qr_hom_fit) refers to qrdec.o(i.qr_hom_cell_init) for qr_hom_cell_init
    qrdec.o(i.qr_hom_fit) refers to qrdec.o(i.qr_alignment_pattern_search) for qr_alignment_pattern_search
    qrdec.o(i.qr_hom_fit) refers to ldiv.o(.text) for __aeabi_ldivmod
    qrdec.o(i.qr_hom_fit) refers to qrdec.o(i.qr_hom_init) for qr_hom_init
    qrdec.o(i.qr_hom_init) refers to util.o(i.qr_ilog) for qr_ilog
    qrdec.o(i.qr_hom_init) refers to llsshr.o(.text) for __aeabi_lasr
    qrdec.o(i.qr_line_fit) refers to util.o(i.qr_ihypot) for qr_ihypot
    qrdec.o(i.qr_line_fit) refers to util.o(i.qr_ilog) for qr_ilog
    qrdec.o(i.qr_line_fit_finder_edge) refers to zbar_config.o(i.Zbar_malloc) for Zbar_malloc
    qrdec.o(i.qr_line_fit_finder_edge) refers to qrdec.o(i.qr_line_fit_points) for qr_line_fit_points
    qrdec.o(i.qr_line_fit_finder_edge) refers to qrdec.o(i.qr_line_orient) for qr_line_orient
    qrdec.o(i.qr_line_fit_finder_edge) refers to zbar_config.o(i.Zbar_free) for Zbar_free
    qrdec.o(i.qr_line_fit_finder_pair) refers to zbar_config.o(i.Zbar_malloc) for Zbar_malloc
    qrdec.o(i.qr_line_fit_finder_pair) refers to qrdec.o(i.qr_aff_project) for qr_aff_project
    qrdec.o(i.qr_line_fit_finder_pair) refers to qrdec.o(i.qr_line_fit_points) for qr_line_fit_points
    qrdec.o(i.qr_line_fit_finder_pair) refers to qrdec.o(i.qr_line_orient) for qr_line_orient
    qrdec.o(i.qr_line_fit_finder_pair) refers to zbar_config.o(i.Zbar_free) for Zbar_free
    qrdec.o(i.qr_line_fit_points) refers to util.o(i.qr_ilog) for qr_ilog
    qrdec.o(i.qr_line_fit_points) refers to qrdec.o(i.qr_line_fit) for qr_line_fit
    qrdec.o(i.qr_line_orient) refers to qrdec.o(i.qr_line_eval) for qr_line_eval
    qrdec.o(i.qr_reader_init) refers to isaac.o(i.isaac_init) for isaac_init
    qrdec.o(i.qr_reader_init) refers to rs.o(i.rs_gf256_init) for rs_gf256_init
    qrdec.o(i.qr_reader_match_centers) refers to zbar_config.o(i.Zbar_calloc) for Zbar_calloc
    qrdec.o(i.qr_reader_match_centers) refers to qrdec.o(i.qr_reader_try_configuration) for qr_reader_try_configuration
    qrdec.o(i.qr_reader_match_centers) refers to qrdec.o(i.qr_code_data_list_add) for qr_code_data_list_add
    qrdec.o(i.qr_reader_match_centers) refers to qrdec.o(i.qr_point_ccw) for qr_point_ccw
    qrdec.o(i.qr_reader_match_centers) refers to zbar_config.o(i.Zbar_malloc) for Zbar_malloc
    qrdec.o(i.qr_reader_match_centers) refers to zbar_config.o(i.Zbar_free) for Zbar_free
    qrdec.o(i.qr_reader_try_configuration) refers to qrdec.o(i.qr_point_ccw) for qr_point_ccw
    qrdec.o(i.qr_reader_try_configuration) refers to qrdec.o(i.qr_point_distance2) for qr_point_distance2
    qrdec.o(i.qr_reader_try_configuration) refers to util.o(i.qr_ilog) for qr_ilog
    qrdec.o(i.qr_reader_try_configuration) refers to qrdec.o(i.qr_aff_init) for qr_aff_init
    qrdec.o(i.qr_reader_try_configuration) refers to qrdec.o(i.qr_aff_unproject) for qr_aff_unproject
    qrdec.o(i.qr_reader_try_configuration) refers to qrdec.o(i.qr_finder_edge_pts_aff_classify) for qr_finder_edge_pts_aff_classify
    qrdec.o(i.qr_reader_try_configuration) refers to qrdec.o(i.qr_finder_estimate_module_size_and_version) for qr_finder_estimate_module_size_and_version
    qrdec.o(i.qr_reader_try_configuration) refers to qrdec.o(i.qr_hom_fit) for qr_hom_fit
    qrdec.o(i.qr_reader_try_configuration) refers to qrdec.o(i.qr_hom_unproject) for qr_hom_unproject
    qrdec.o(i.qr_reader_try_configuration) refers to qrdec.o(i.qr_finder_edge_pts_hom_classify) for qr_finder_edge_pts_hom_classify
    qrdec.o(i.qr_reader_try_configuration) refers to qrdec.o(i.qr_finder_version_decode) for qr_finder_version_decode
    qrdec.o(i.qr_reader_try_configuration) refers to qrdec.o(i.qr_finder_fmt_info_decode) for qr_finder_fmt_info_decode
    qrdec.o(i.qr_reader_try_configuration) refers to qrdec.o(i.qr_code_decode) for qr_code_decode
    qrdec.o(i.qr_sampling_grid_clear) refers to zbar_config.o(i.Zbar_free) for Zbar_free
    qrdec.o(i.qr_sampling_grid_init) refers to qrdec.o(i.qr_hom_cell_init) for qr_hom_cell_init
    qrdec.o(i.qr_sampling_grid_init) refers to zbar_config.o(i.Zbar_malloc) for Zbar_malloc
    qrdec.o(i.qr_sampling_grid_init) refers to zbar_config.o(i.Zbar_calloc) for Zbar_calloc
    qrdec.o(i.qr_sampling_grid_init) refers to qrdec.o(i.qr_sampling_grid_fp_mask_rect) for qr_sampling_grid_fp_mask_rect
    qrdec.o(i.qr_sampling_grid_init) refers to zbar_config.o(i.Zbar_memcpy) for Zbar_memcpy
    qrdec.o(i.qr_sampling_grid_init) refers to qrdec.o(i.qr_hom_cell_project) for qr_hom_cell_project
    qrdec.o(i.qr_sampling_grid_init) refers to qrdec.o(.constdata) for QR_ALIGNMENT_SPACING
    qrdec.o(i.qr_sampling_grid_init) refers to qrdec.o(i.qr_alignment_pattern_search) for qr_alignment_pattern_search
    qrdec.o(i.qr_sampling_grid_init) refers to zbar_config.o(i.Zbar_free) for Zbar_free
    qrdec.o(i.qr_sampling_grid_sample) refers to qrdec.o(i.qr_data_mask_fill) for qr_data_mask_fill
    qrdec.o(i.qr_sampling_grid_sample) refers to qrdec.o(i.qr_sampling_grid_is_in_fp) for qr_sampling_grid_is_in_fp
    qrdec.o(i.qr_sampling_grid_sample) refers to qrdec.o(i.qr_hom_cell_fproject) for qr_hom_cell_fproject
    qrdec.o(i.qr_sampling_grid_sample) refers to qrdec.o(i.qr_img_get_bit) for qr_img_get_bit
    qrdectxt.o(i.qr_code_data_list_extract_text) refers to zbar_config.o(i.Zbar_malloc) for Zbar_malloc
    qrdectxt.o(i.qr_code_data_list_extract_text) refers to zbar_config.o(i.Zbar_calloc) for Zbar_calloc
    qrdectxt.o(i.qr_code_data_list_extract_text) refers to img_scanner.o(i._zbar_image_scanner_alloc_sym) for _zbar_image_scanner_alloc_sym
    qrdectxt.o(i.qr_code_data_list_extract_text) refers to qrdectxt.o(i.sym_add_point) for sym_add_point
    qrdectxt.o(i.qr_code_data_list_extract_text) refers to zbar_config.o(i.Zbar_memcpy) for Zbar_memcpy
    qrdectxt.o(i.qr_code_data_list_extract_text) refers to memchr.o(.text) for memchr
    qrdectxt.o(i.qr_code_data_list_extract_text) refers to qrdectxt.o(i.zbar_utf8_to_gb18030) for zbar_utf8_to_gb18030
    qrdectxt.o(i.qr_code_data_list_extract_text) refers to zbar_config.o(i.Zbar_realloc) for Zbar_realloc
    qrdectxt.o(i.qr_code_data_list_extract_text) refers to symbol.o(i._zbar_symbol_set_create) for _zbar_symbol_set_create
    qrdectxt.o(i.qr_code_data_list_extract_text) refers to symbol.o(i._zbar_symbol_free) for _zbar_symbol_free
    qrdectxt.o(i.qr_code_data_list_extract_text) refers to img_scanner.o(i._zbar_image_scanner_add_sym) for _zbar_image_scanner_add_sym
    qrdectxt.o(i.qr_code_data_list_extract_text) refers to img_scanner.o(i._zbar_image_scanner_recycle_syms) for _zbar_image_scanner_recycle_syms
    qrdectxt.o(i.qr_code_data_list_extract_text) refers to zbar_config.o(i.Zbar_free) for Zbar_free
    qrdectxt.o(i.sym_add_point) refers to zbar_config.o(i.Zbar_realloc) for Zbar_realloc
    qrdectxt.o(i.zbar_utf8_to_gb18030) refers to qrdectxt.o(.constdata) for unicode_to_gb18030_table1
    rs.o(i.rs_calc_syndrome) refers to rs.o(i.rs_hgmul) for rs_hgmul
    rs.o(i.rs_compute_genpoly) refers to rs.o(i.rs_poly_zero) for rs_poly_zero
    rs.o(i.rs_compute_genpoly) refers to rs.o(i.rs_hgmul) for rs_hgmul
    rs.o(i.rs_correct) refers to rs.o(i.rs_calc_syndrome) for rs_calc_syndrome
    rs.o(i.rs_correct) refers to rs.o(i.rs_modified_berlekamp_massey) for rs_modified_berlekamp_massey
    rs.o(i.rs_correct) refers to rs.o(i.rs_find_roots) for rs_find_roots
    rs.o(i.rs_correct) refers to rs.o(i.rs_hgmul) for rs_hgmul
    rs.o(i.rs_correct) refers to rs.o(i.rs_gdiv) for rs_gdiv
    rs.o(i.rs_cubic_solve) refers to rs.o(i.rs_quadratic_solve) for rs_quadratic_solve
    rs.o(i.rs_cubic_solve) refers to rs.o(i.rs_gmul) for rs_gmul
    rs.o(i.rs_cubic_solve) refers to rs.o(i.rs_gdiv) for rs_gdiv
    rs.o(i.rs_encode) refers to rs.o(i.rs_poly_zero) for rs_poly_zero
    rs.o(i.rs_encode) refers to rs.o(i.rs_hgmul) for rs_hgmul
    rs.o(i.rs_encode) refers to rs.o(i.rs_poly_div_x) for rs_poly_div_x
    rs.o(i.rs_find_roots) refers to rs.o(i.rs_quartic_solve) for rs_quartic_solve
    rs.o(i.rs_find_roots) refers to rs.o(i.rs_hgmul) for rs_hgmul
    rs.o(i.rs_init_lambda) refers to rs.o(i.rs_poly_zero) for rs_poly_zero
    rs.o(i.rs_init_lambda) refers to rs.o(i.rs_hgmul) for rs_hgmul
    rs.o(i.rs_modified_berlekamp_massey) refers to rs.o(i.rs_init_lambda) for rs_init_lambda
    rs.o(i.rs_modified_berlekamp_massey) refers to rs.o(i.rs_poly_copy) for rs_poly_copy
    rs.o(i.rs_modified_berlekamp_massey) refers to rs.o(i.rs_poly_mul_x) for rs_poly_mul_x
    rs.o(i.rs_modified_berlekamp_massey) refers to rs.o(i.rs_gmul) for rs_gmul
    rs.o(i.rs_modified_berlekamp_massey) refers to rs.o(i.rs_hgmul) for rs_hgmul
    rs.o(i.rs_modified_berlekamp_massey) refers to rs.o(i.rs_poly_mult) for rs_poly_mult
    rs.o(i.rs_poly_copy) refers to zbar_config.o(i.Zbar_memcpy) for Zbar_memcpy
    rs.o(i.rs_poly_div_x) refers to memmovea.o(.text) for __aeabi_memmove
    rs.o(i.rs_poly_mul_x) refers to memmovea.o(.text) for __aeabi_memmove
    rs.o(i.rs_poly_mult) refers to rs.o(i.rs_poly_zero) for rs_poly_zero
    rs.o(i.rs_poly_mult) refers to rs.o(i.rs_hgmul) for rs_hgmul
    rs.o(i.rs_poly_zero) refers to zbar_config.o(i.Zbar_memset) for Zbar_memset
    rs.o(i.rs_quadratic_solve) refers to rs.o(i.rs_gsqrt) for rs_gsqrt
    rs.o(i.rs_quadratic_solve) refers to rs.o(i.rs_hgmul) for rs_hgmul
    rs.o(i.rs_quadratic_solve) refers to rs.o(i.rs_gdiv) for rs_gdiv
    rs.o(i.rs_quadratic_solve) refers to rs.o(i.rs_gmul) for rs_gmul
    rs.o(i.rs_quartic_solve) refers to rs.o(i.rs_cubic_solve) for rs_cubic_solve
    rs.o(i.rs_quartic_solve) refers to rs.o(i.rs_hgmul) for rs_hgmul
    rs.o(i.rs_quartic_solve) refers to rs.o(i.rs_gsqrt) for rs_gsqrt
    rs.o(i.rs_quartic_solve) refers to rs.o(i.rs_gmul) for rs_gmul
    rs.o(i.rs_quartic_solve) refers to rs.o(i.rs_quadratic_solve) for rs_quadratic_solve
    rs.o(i.rs_quartic_solve) refers to rs.o(i.rs_gdiv) for rs_gdiv
    util.o(i.qr_ihypot) refers to util.o(i.qr_ilog) for qr_ilog
    qr_finder.o(i._zbar_find_qr) refers to qr_finder.o(i.get_width) for get_width
    qr_finder.o(i._zbar_find_qr) refers to qr_finder.o(i.pair_width) for pair_width
    qr_finder.o(i._zbar_find_qr) refers to qr_finder.o(i.decode_e) for decode_e
    qr_finder.o(i.pair_width) refers to qr_finder.o(i.get_width) for get_width
    24cxx.o(i.AT24CXX_Check) refers to 24cxx.o(i.AT24CXX_ReadOneByte) for AT24CXX_ReadOneByte
    24cxx.o(i.AT24CXX_Check) refers to 24cxx.o(i.AT24CXX_WriteOneByte) for AT24CXX_WriteOneByte
    24cxx.o(i.AT24CXX_Init) refers to myiic.o(i.IIC_Init) for IIC_Init
    24cxx.o(i.AT24CXX_Read) refers to 24cxx.o(i.AT24CXX_ReadOneByte) for AT24CXX_ReadOneByte
    24cxx.o(i.AT24CXX_ReadLenByte) refers to 24cxx.o(i.AT24CXX_ReadOneByte) for AT24CXX_ReadOneByte
    24cxx.o(i.AT24CXX_ReadOneByte) refers to myiic.o(i.IIC_Start) for IIC_Start
    24cxx.o(i.AT24CXX_ReadOneByte) refers to myiic.o(i.IIC_Send_Byte) for IIC_Send_Byte
    24cxx.o(i.AT24CXX_ReadOneByte) refers to myiic.o(i.IIC_Wait_Ack) for IIC_Wait_Ack
    24cxx.o(i.AT24CXX_ReadOneByte) refers to myiic.o(i.IIC_Read_Byte) for IIC_Read_Byte
    24cxx.o(i.AT24CXX_ReadOneByte) refers to myiic.o(i.IIC_Stop) for IIC_Stop
    24cxx.o(i.AT24CXX_Write) refers to 24cxx.o(i.AT24CXX_WriteOneByte) for AT24CXX_WriteOneByte
    24cxx.o(i.AT24CXX_WriteLenByte) refers to 24cxx.o(i.AT24CXX_WriteOneByte) for AT24CXX_WriteOneByte
    24cxx.o(i.AT24CXX_WriteOneByte) refers to myiic.o(i.IIC_Start) for IIC_Start
    24cxx.o(i.AT24CXX_WriteOneByte) refers to myiic.o(i.IIC_Send_Byte) for IIC_Send_Byte
    24cxx.o(i.AT24CXX_WriteOneByte) refers to myiic.o(i.IIC_Wait_Ack) for IIC_Wait_Ack
    24cxx.o(i.AT24CXX_WriteOneByte) refers to myiic.o(i.IIC_Stop) for IIC_Stop
    24cxx.o(i.AT24CXX_WriteOneByte) refers to init.o(i.delay_ms) for delay_ms
    myiic.o(i.IIC_Ack) refers to init.o(i.delay_us) for delay_us
    myiic.o(i.IIC_Init) refers to stm32f10x_rcc.o(i.RCC_APB2PeriphClockCmd) for RCC_APB2PeriphClockCmd
    myiic.o(i.IIC_Init) refers to stm32f10x_gpio.o(i.GPIO_Init) for GPIO_Init
    myiic.o(i.IIC_Init) refers to stm32f10x_gpio.o(i.GPIO_SetBits) for GPIO_SetBits
    myiic.o(i.IIC_NAck) refers to init.o(i.delay_us) for delay_us
    myiic.o(i.IIC_Read_Byte) refers to init.o(i.delay_us) for delay_us
    myiic.o(i.IIC_Read_Byte) refers to myiic.o(i.IIC_NAck) for IIC_NAck
    myiic.o(i.IIC_Read_Byte) refers to myiic.o(i.IIC_Ack) for IIC_Ack
    myiic.o(i.IIC_Send_Byte) refers to init.o(i.delay_us) for delay_us
    myiic.o(i.IIC_Start) refers to init.o(i.delay_us) for delay_us
    myiic.o(i.IIC_Stop) refers to init.o(i.delay_us) for delay_us
    myiic.o(i.IIC_Wait_Ack) refers to init.o(i.delay_us) for delay_us
    myiic.o(i.IIC_Wait_Ack) refers to myiic.o(i.IIC_Stop) for IIC_Stop
    lcd.o(i.LCD_Clear) refers to lcd.o(i.LCD_SetWindows) for LCD_SetWindows
    lcd.o(i.LCD_Clear) refers to lcd.o(i.Lcd_WriteData_16Bit) for Lcd_WriteData_16Bit
    lcd.o(i.LCD_Clear) refers to lcd.o(.bss) for lcddev
    lcd.o(i.LCD_DrawFRONT_COLOR) refers to lcd.o(i.LCD_SetWindows) for LCD_SetWindows
    lcd.o(i.LCD_DrawFRONT_COLOR) refers to lcd.o(i.Lcd_WriteData_16Bit) for Lcd_WriteData_16Bit
    lcd.o(i.LCD_DrawPoint) refers to lcd.o(i.LCD_SetCursor) for LCD_SetCursor
    lcd.o(i.LCD_DrawPoint) refers to lcd.o(i.Lcd_WriteData_16Bit) for Lcd_WriteData_16Bit
    lcd.o(i.LCD_DrawPoint) refers to lcd.o(.data) for POINT_COLOR
    lcd.o(i.LCD_GPIOInit) refers to stm32f10x_rcc.o(i.RCC_APB2PeriphClockCmd) for RCC_APB2PeriphClockCmd
    lcd.o(i.LCD_GPIOInit) refers to stm32f10x_gpio.o(i.GPIO_Init) for GPIO_Init
    lcd.o(i.LCD_Init) refers to spi.o(i.SPI2_Init) for SPI2_Init
    lcd.o(i.LCD_Init) refers to lcd.o(i.LCD_GPIOInit) for LCD_GPIOInit
    lcd.o(i.LCD_Init) refers to lcd.o(i.LCD_RESET) for LCD_RESET
    lcd.o(i.LCD_Init) refers to lcd.o(i.LCD_WR_REG) for LCD_WR_REG
    lcd.o(i.LCD_Init) refers to lcd.o(i.LCD_WR_DATA) for LCD_WR_DATA
    lcd.o(i.LCD_Init) refers to init.o(i.delay_ms) for delay_ms
    lcd.o(i.LCD_Init) refers to lcd.o(i.LCD_direction) for LCD_direction
    lcd.o(i.LCD_Init) refers to lcd.o(i.LCD_Clear) for LCD_Clear
    lcd.o(i.LCD_RESET) refers to init.o(i.delay_ms) for delay_ms
    lcd.o(i.LCD_ReadPoint) refers to lcd.o(i.my_LCD_SetCursor) for my_LCD_SetCursor
    lcd.o(i.LCD_ReadPoint) refers to lcd.o(i.my_LCD_WR_REG) for my_LCD_WR_REG
    lcd.o(i.LCD_ReadPoint) refers to lcd.o(.bss) for lcddev
    lcd.o(i.LCD_SetCursor) refers to lcd.o(i.LCD_SetWindows) for LCD_SetWindows
    lcd.o(i.LCD_SetWindows) refers to lcd.o(i.LCD_WR_REG) for LCD_WR_REG
    lcd.o(i.LCD_SetWindows) refers to lcd.o(i.LCD_WR_DATA) for LCD_WR_DATA
    lcd.o(i.LCD_SetWindows) refers to lcd.o(i.LCD_WriteRAM_Prepare) for LCD_WriteRAM_Prepare
    lcd.o(i.LCD_SetWindows) refers to lcd.o(.bss) for lcddev
    lcd.o(i.LCD_WR_DATA) refers to spi.o(i.SPI_WriteByte) for SPI_WriteByte
    lcd.o(i.LCD_WR_REG) refers to spi.o(i.SPI_WriteByte) for SPI_WriteByte
    lcd.o(i.LCD_WriteRAM_Prepare) refers to lcd.o(i.LCD_WR_REG) for LCD_WR_REG
    lcd.o(i.LCD_WriteRAM_Prepare) refers to lcd.o(.bss) for lcddev
    lcd.o(i.LCD_WriteReg) refers to lcd.o(i.LCD_WR_REG) for LCD_WR_REG
    lcd.o(i.LCD_WriteReg) refers to lcd.o(i.LCD_WR_DATA) for LCD_WR_DATA
    lcd.o(i.LCD_direction) refers to lcd.o(i.LCD_WriteReg) for LCD_WriteReg
    lcd.o(i.LCD_direction) refers to lcd.o(.bss) for lcddev
    lcd.o(i.Lcd_WriteData_16Bit) refers to spi.o(i.SPI_WriteByte) for SPI_WriteByte
    lcd.o(i.my_LCD_SetCursor) refers to lcd.o(i.my_LCD_WR_REG) for my_LCD_WR_REG
    lcd.o(i.my_LCD_SetCursor) refers to lcd.o(i.my_LCD_WR_DATA) for my_LCD_WR_DATA
    lcd.o(i.my_LCD_SetCursor) refers to lcd.o(i.LCD_WR_DATA) for LCD_WR_DATA
    lcd.o(i.my_LCD_SetCursor) refers to lcd.o(.bss) for lcddev
    ov7670.o(i.OV7670_Brightness) refers to sccb.o(i.SCCB_WR_Reg) for SCCB_WR_Reg
    ov7670.o(i.OV7670_Color_Saturation) refers to sccb.o(i.SCCB_WR_Reg) for SCCB_WR_Reg
    ov7670.o(i.OV7670_Contrast) refers to sccb.o(i.SCCB_WR_Reg) for SCCB_WR_Reg
    ov7670.o(i.OV7670_Init) refers to stm32f10x_rcc.o(i.RCC_APB2PeriphClockCmd) for RCC_APB2PeriphClockCmd
    ov7670.o(i.OV7670_Init) refers to stm32f10x_gpio.o(i.GPIO_Init) for GPIO_Init
    ov7670.o(i.OV7670_Init) refers to stm32f10x_gpio.o(i.GPIO_SetBits) for GPIO_SetBits
    ov7670.o(i.OV7670_Init) refers to sccb.o(i.SCCB_Init) for SCCB_Init
    ov7670.o(i.OV7670_Init) refers to sccb.o(i.SCCB_WR_Reg) for SCCB_WR_Reg
    ov7670.o(i.OV7670_Init) refers to init.o(i.delay_ms) for delay_ms
    ov7670.o(i.OV7670_Init) refers to sccb.o(i.SCCB_RD_Reg) for SCCB_RD_Reg
    ov7670.o(i.OV7670_Init) refers to ov7670.o(.constdata) for ov7670_init_reg_tbl
    ov7670.o(i.OV7670_Light_Mode) refers to sccb.o(i.SCCB_WR_Reg) for SCCB_WR_Reg
    ov7670.o(i.OV7670_Special_Effects) refers to sccb.o(i.SCCB_WR_Reg) for SCCB_WR_Reg
    ov7670.o(i.OV7670_Window_Set) refers to sccb.o(i.SCCB_RD_Reg) for SCCB_RD_Reg
    ov7670.o(i.OV7670_Window_Set) refers to sccb.o(i.SCCB_WR_Reg) for SCCB_WR_Reg
    sccb.o(i.SCCB_Init) refers to stm32f10x_rcc.o(i.RCC_APB2PeriphClockCmd) for RCC_APB2PeriphClockCmd
    sccb.o(i.SCCB_Init) refers to stm32f10x_gpio.o(i.GPIO_Init) for GPIO_Init
    sccb.o(i.SCCB_Init) refers to stm32f10x_gpio.o(i.GPIO_SetBits) for GPIO_SetBits
    sccb.o(i.SCCB_Init) refers to sccb.o(i.SCCB_SDA_OUT) for SCCB_SDA_OUT
    sccb.o(i.SCCB_No_Ack) refers to init.o(i.delay_us) for delay_us
    sccb.o(i.SCCB_RD_Byte) refers to sccb.o(i.SCCB_SDA_IN) for SCCB_SDA_IN
    sccb.o(i.SCCB_RD_Byte) refers to init.o(i.delay_us) for delay_us
    sccb.o(i.SCCB_RD_Byte) refers to sccb.o(i.SCCB_SDA_OUT) for SCCB_SDA_OUT
    sccb.o(i.SCCB_RD_Reg) refers to sccb.o(i.SCCB_Start) for SCCB_Start
    sccb.o(i.SCCB_RD_Reg) refers to sccb.o(i.SCCB_WR_Byte) for SCCB_WR_Byte
    sccb.o(i.SCCB_RD_Reg) refers to init.o(i.delay_us) for delay_us
    sccb.o(i.SCCB_RD_Reg) refers to sccb.o(i.SCCB_Stop) for SCCB_Stop
    sccb.o(i.SCCB_RD_Reg) refers to sccb.o(i.SCCB_RD_Byte) for SCCB_RD_Byte
    sccb.o(i.SCCB_RD_Reg) refers to sccb.o(i.SCCB_No_Ack) for SCCB_No_Ack
    sccb.o(i.SCCB_SDA_IN) refers to stm32f10x_gpio.o(i.GPIO_Init) for GPIO_Init
    sccb.o(i.SCCB_SDA_OUT) refers to stm32f10x_gpio.o(i.GPIO_Init) for GPIO_Init
    sccb.o(i.SCCB_Start) refers to init.o(i.delay_us) for delay_us
    sccb.o(i.SCCB_Stop) refers to init.o(i.delay_us) for delay_us
    sccb.o(i.SCCB_WR_Byte) refers to init.o(i.delay_us) for delay_us
    sccb.o(i.SCCB_WR_Byte) refers to sccb.o(i.SCCB_SDA_IN) for SCCB_SDA_IN
    sccb.o(i.SCCB_WR_Byte) refers to sccb.o(i.SCCB_SDA_OUT) for SCCB_SDA_OUT
    sccb.o(i.SCCB_WR_Reg) refers to sccb.o(i.SCCB_Start) for SCCB_Start
    sccb.o(i.SCCB_WR_Reg) refers to sccb.o(i.SCCB_WR_Byte) for SCCB_WR_Byte
    sccb.o(i.SCCB_WR_Reg) refers to init.o(i.delay_us) for delay_us
    sccb.o(i.SCCB_WR_Reg) refers to sccb.o(i.SCCB_Stop) for SCCB_Stop
    time.o(i.TIM4_IRQHandler) refers to stm32f10x_tim.o(i.TIM_GetITStatus) for TIM_GetITStatus
    time.o(i.TIM4_IRQHandler) refers to printf8.o(i.__0printf$8) for __2printf
    time.o(i.TIM4_IRQHandler) refers to stm32f10x_tim.o(i.TIM_ClearITPendingBit) for TIM_ClearITPendingBit
    time.o(i.TIM4_IRQHandler) refers to time.o(.data) for ov_frame
    time.o(i.TIM4_Init) refers to stm32f10x_rcc.o(i.RCC_APB1PeriphClockCmd) for RCC_APB1PeriphClockCmd
    time.o(i.TIM4_Init) refers to stm32f10x_tim.o(i.TIM_TimeBaseInit) for TIM_TimeBaseInit
    time.o(i.TIM4_Init) refers to stm32f10x_tim.o(i.TIM_ITConfig) for TIM_ITConfig
    time.o(i.TIM4_Init) refers to stm32f10x_tim.o(i.TIM_ClearITPendingBit) for TIM_ClearITPendingBit
    time.o(i.TIM4_Init) refers to misc.o(i.NVIC_Init) for NVIC_Init
    time.o(i.TIM4_Init) refers to stm32f10x_tim.o(i.TIM_Cmd) for TIM_Cmd
    sys.o(i.MYRCC_DeInit) refers to sys.o(i.MY_NVIC_SetVectorTable) for MY_NVIC_SetVectorTable
    sys.o(i.QR_NVIC_Init) refers to sys.o(i.MY_NVIC_PriorityGroupConfig) for MY_NVIC_PriorityGroupConfig
    sys.o(i.Stm32_Clock_Init) refers to sys.o(i.MYRCC_DeInit) for MYRCC_DeInit
    sys.o(i.Sys_Standby) refers to sys.o(.emb_text) for WFI_SET
    spi.o(i.SPI2_Init) refers to stm32f10x_rcc.o(i.RCC_APB2PeriphClockCmd) for RCC_APB2PeriphClockCmd
    spi.o(i.SPI2_Init) refers to stm32f10x_gpio.o(i.GPIO_Init) for GPIO_Init
    spi.o(i.SPI2_Init) refers to stm32f10x_rcc.o(i.RCC_APB1PeriphClockCmd) for RCC_APB1PeriphClockCmd
    spi.o(i.SPI2_Init) refers to my_stm32f10x_spi.o(i.SPI_Init) for SPI_Init
    spi.o(i.SPI2_Init) refers to my_stm32f10x_spi.o(i.SPI_Cmd) for SPI_Cmd
    my_stm32f10x_spi.o(i.I2S_Init) refers to stm32f10x_rcc.o(i.RCC_GetClocksFreq) for RCC_GetClocksFreq
    my_stm32f10x_spi.o(i.SPI_I2S_DeInit) refers to stm32f10x_rcc.o(i.RCC_APB2PeriphResetCmd) for RCC_APB2PeriphResetCmd
    my_stm32f10x_spi.o(i.SPI_I2S_DeInit) refers to stm32f10x_rcc.o(i.RCC_APB1PeriphResetCmd) for RCC_APB1PeriphResetCmd
    buzzle.o(i.Buzzle_Init) refers to stm32f10x_rcc.o(i.RCC_APB2PeriphClockCmd) for RCC_APB2PeriphClockCmd
    buzzle.o(i.Buzzle_Init) refers to stm32f10x_gpio.o(i.GPIO_Init) for GPIO_Init
    buzzle.o(i.Buzzle_Init) refers to stm32f10x_gpio.o(i.GPIO_SetBits) for GPIO_SetBits
    buzzle.o(i.Buzzle_OFF) refers to stm32f10x_gpio.o(i.GPIO_SetBits) for GPIO_SetBits
    buzzle.o(i.Buzzle_ON) refers to stm32f10x_gpio.o(i.GPIO_ResetBits) for GPIO_ResetBits
    led.o(i.LED0_OFF) refers to stm32f10x_gpio.o(i.GPIO_SetBits) for GPIO_SetBits
    led.o(i.LED0_ON) refers to stm32f10x_gpio.o(i.GPIO_ResetBits) for GPIO_ResetBits
    led.o(i.LED4_OFF) refers to stm32f10x_gpio.o(i.GPIO_SetBits) for GPIO_SetBits
    led.o(i.LED4_ON) refers to stm32f10x_gpio.o(i.GPIO_ResetBits) for GPIO_ResetBits
    led.o(i.LED4_Turn) refers to stm32f10x_gpio.o(i.GPIO_ReadOutputDataBit) for GPIO_ReadOutputDataBit
    led.o(i.LED4_Turn) refers to stm32f10x_gpio.o(i.GPIO_SetBits) for GPIO_SetBits
    led.o(i.LED4_Turn) refers to stm32f10x_gpio.o(i.GPIO_ResetBits) for GPIO_ResetBits
    led.o(i.LED5_OFF) refers to stm32f10x_gpio.o(i.GPIO_SetBits) for GPIO_SetBits
    led.o(i.LED5_ON) refers to stm32f10x_gpio.o(i.GPIO_ResetBits) for GPIO_ResetBits
    led.o(i.LED5_Turn) refers to stm32f10x_gpio.o(i.GPIO_ReadOutputDataBit) for GPIO_ReadOutputDataBit
    led.o(i.LED5_Turn) refers to stm32f10x_gpio.o(i.GPIO_SetBits) for GPIO_SetBits
    led.o(i.LED5_Turn) refers to stm32f10x_gpio.o(i.GPIO_ResetBits) for GPIO_ResetBits
    led.o(i.LED_Init) refers to stm32f10x_rcc.o(i.RCC_APB2PeriphClockCmd) for RCC_APB2PeriphClockCmd
    led.o(i.LED_Init) refers to stm32f10x_gpio.o(i.GPIO_Init) for GPIO_Init
    led.o(i.LED_Init) refers to stm32f10x_gpio.o(i.GPIO_SetBits) for GPIO_SetBits
    led.o(i.buzzle6_OFF) refers to stm32f10x_gpio.o(i.GPIO_SetBits) for GPIO_SetBits
    led.o(i.buzzle6_ON) refers to stm32f10x_gpio.o(i.GPIO_ResetBits) for GPIO_ResetBits
    stm32f10x_bkp.o(i.BKP_DeInit) refers to stm32f10x_rcc.o(i.RCC_BackupResetCmd) for RCC_BackupResetCmd
    stm32f10x_flash.o(i.FLASH_EnableWriteProtection) refers to stm32f10x_flash.o(i.FLASH_WaitForLastOperation) for FLASH_WaitForLastOperation
    stm32f10x_flash.o(i.FLASH_EraseAllBank1Pages) refers to stm32f10x_flash.o(i.FLASH_WaitForLastBank1Operation) for FLASH_WaitForLastBank1Operation
    stm32f10x_flash.o(i.FLASH_EraseAllPages) refers to stm32f10x_flash.o(i.FLASH_WaitForLastOperation) for FLASH_WaitForLastOperation
    stm32f10x_flash.o(i.FLASH_EraseOptionBytes) refers to stm32f10x_flash.o(i.FLASH_GetReadOutProtectionStatus) for FLASH_GetReadOutProtectionStatus
    stm32f10x_flash.o(i.FLASH_EraseOptionBytes) refers to stm32f10x_flash.o(i.FLASH_WaitForLastOperation) for FLASH_WaitForLastOperation
    stm32f10x_flash.o(i.FLASH_ErasePage) refers to stm32f10x_flash.o(i.FLASH_WaitForLastOperation) for FLASH_WaitForLastOperation
    stm32f10x_flash.o(i.FLASH_ProgramHalfWord) refers to stm32f10x_flash.o(i.FLASH_WaitForLastOperation) for FLASH_WaitForLastOperation
    stm32f10x_flash.o(i.FLASH_ProgramOptionByteData) refers to stm32f10x_flash.o(i.FLASH_WaitForLastOperation) for FLASH_WaitForLastOperation
    stm32f10x_flash.o(i.FLASH_ProgramWord) refers to stm32f10x_flash.o(i.FLASH_WaitForLastOperation) for FLASH_WaitForLastOperation
    stm32f10x_flash.o(i.FLASH_ReadOutProtection) refers to stm32f10x_flash.o(i.FLASH_WaitForLastOperation) for FLASH_WaitForLastOperation
    stm32f10x_flash.o(i.FLASH_UserOptionByteConfig) refers to stm32f10x_flash.o(i.FLASH_WaitForLastOperation) for FLASH_WaitForLastOperation
    stm32f10x_flash.o(i.FLASH_WaitForLastBank1Operation) refers to stm32f10x_flash.o(i.FLASH_GetBank1Status) for FLASH_GetBank1Status
    stm32f10x_flash.o(i.FLASH_WaitForLastOperation) refers to stm32f10x_flash.o(i.FLASH_GetBank1Status) for FLASH_GetBank1Status
    stm32f10x_gpio.o(i.GPIO_AFIODeInit) refers to stm32f10x_rcc.o(i.RCC_APB2PeriphResetCmd) for RCC_APB2PeriphResetCmd
    stm32f10x_gpio.o(i.GPIO_DeInit) refers to stm32f10x_rcc.o(i.RCC_APB2PeriphResetCmd) for RCC_APB2PeriphResetCmd
    stm32f10x_pwr.o(i.PWR_DeInit) refers to stm32f10x_rcc.o(i.RCC_APB1PeriphResetCmd) for RCC_APB1PeriphResetCmd
    stm32f10x_rcc.o(i.RCC_GetClocksFreq) refers to stm32f10x_rcc.o(.data) for APBAHBPrescTable
    stm32f10x_rcc.o(i.RCC_WaitForHSEStartUp) refers to stm32f10x_rcc.o(i.RCC_GetFlagStatus) for RCC_GetFlagStatus
    stm32f10x_rtc.o(i.RTC_SetAlarm) refers to stm32f10x_rtc.o(i.RTC_EnterConfigMode) for RTC_EnterConfigMode
    stm32f10x_rtc.o(i.RTC_SetAlarm) refers to stm32f10x_rtc.o(i.RTC_ExitConfigMode) for RTC_ExitConfigMode
    stm32f10x_rtc.o(i.RTC_SetCounter) refers to stm32f10x_rtc.o(i.RTC_EnterConfigMode) for RTC_EnterConfigMode
    stm32f10x_rtc.o(i.RTC_SetCounter) refers to stm32f10x_rtc.o(i.RTC_ExitConfigMode) for RTC_ExitConfigMode
    stm32f10x_rtc.o(i.RTC_SetPrescaler) refers to stm32f10x_rtc.o(i.RTC_EnterConfigMode) for RTC_EnterConfigMode
    stm32f10x_rtc.o(i.RTC_SetPrescaler) refers to stm32f10x_rtc.o(i.RTC_ExitConfigMode) for RTC_ExitConfigMode
    stm32f10x_tim.o(i.TIM_DeInit) refers to stm32f10x_rcc.o(i.RCC_APB2PeriphResetCmd) for RCC_APB2PeriphResetCmd
    stm32f10x_tim.o(i.TIM_DeInit) refers to stm32f10x_rcc.o(i.RCC_APB1PeriphResetCmd) for RCC_APB1PeriphResetCmd
    stm32f10x_tim.o(i.TIM_ETRClockMode1Config) refers to stm32f10x_tim.o(i.TIM_ETRConfig) for TIM_ETRConfig
    stm32f10x_tim.o(i.TIM_ETRClockMode2Config) refers to stm32f10x_tim.o(i.TIM_ETRConfig) for TIM_ETRConfig
    stm32f10x_tim.o(i.TIM_ICInit) refers to stm32f10x_tim.o(i.TI1_Config) for TI1_Config
    stm32f10x_tim.o(i.TIM_ICInit) refers to stm32f10x_tim.o(i.TIM_SetIC1Prescaler) for TIM_SetIC1Prescaler
    stm32f10x_tim.o(i.TIM_ICInit) refers to stm32f10x_tim.o(i.TI2_Config) for TI2_Config
    stm32f10x_tim.o(i.TIM_ICInit) refers to stm32f10x_tim.o(i.TIM_SetIC2Prescaler) for TIM_SetIC2Prescaler
    stm32f10x_tim.o(i.TIM_ICInit) refers to stm32f10x_tim.o(i.TI3_Config) for TI3_Config
    stm32f10x_tim.o(i.TIM_ICInit) refers to stm32f10x_tim.o(i.TIM_SetIC3Prescaler) for TIM_SetIC3Prescaler
    stm32f10x_tim.o(i.TIM_ICInit) refers to stm32f10x_tim.o(i.TI4_Config) for TI4_Config
    stm32f10x_tim.o(i.TIM_ICInit) refers to stm32f10x_tim.o(i.TIM_SetIC4Prescaler) for TIM_SetIC4Prescaler
    stm32f10x_tim.o(i.TIM_ITRxExternalClockConfig) refers to stm32f10x_tim.o(i.TIM_SelectInputTrigger) for TIM_SelectInputTrigger
    stm32f10x_tim.o(i.TIM_PWMIConfig) refers to stm32f10x_tim.o(i.TI1_Config) for TI1_Config
    stm32f10x_tim.o(i.TIM_PWMIConfig) refers to stm32f10x_tim.o(i.TIM_SetIC1Prescaler) for TIM_SetIC1Prescaler
    stm32f10x_tim.o(i.TIM_PWMIConfig) refers to stm32f10x_tim.o(i.TI2_Config) for TI2_Config
    stm32f10x_tim.o(i.TIM_PWMIConfig) refers to stm32f10x_tim.o(i.TIM_SetIC2Prescaler) for TIM_SetIC2Prescaler
    stm32f10x_tim.o(i.TIM_TIxExternalClockConfig) refers to stm32f10x_tim.o(i.TI2_Config) for TI2_Config
    stm32f10x_tim.o(i.TIM_TIxExternalClockConfig) refers to stm32f10x_tim.o(i.TI1_Config) for TI1_Config
    stm32f10x_tim.o(i.TIM_TIxExternalClockConfig) refers to stm32f10x_tim.o(i.TIM_SelectInputTrigger) for TIM_SelectInputTrigger
    stm32f10x_usart.o(i.USART_DeInit) refers to stm32f10x_rcc.o(i.RCC_APB2PeriphResetCmd) for RCC_APB2PeriphResetCmd
    stm32f10x_usart.o(i.USART_DeInit) refers to stm32f10x_rcc.o(i.RCC_APB1PeriphResetCmd) for RCC_APB1PeriphResetCmd
    stm32f10x_usart.o(i.USART_Init) refers to stm32f10x_rcc.o(i.RCC_GetClocksFreq) for RCC_GetClocksFreq
    dma_stm32f10x.o(i.DMA1_Channel1_IRQHandler) refers to dma_stm32f10x.o(i.DMA1_Channel1_Event) for DMA1_Channel1_Event
    dma_stm32f10x.o(i.DMA1_Channel2_IRQHandler) refers to dma_stm32f10x.o(i.DMA1_Channel2_Event) for DMA1_Channel2_Event
    dma_stm32f10x.o(i.DMA1_Channel3_IRQHandler) refers to dma_stm32f10x.o(i.DMA1_Channel3_Event) for DMA1_Channel3_Event
    dma_stm32f10x.o(i.DMA1_Channel4_IRQHandler) refers to dma_stm32f10x.o(i.DMA1_Channel4_Event) for DMA1_Channel4_Event
    dma_stm32f10x.o(i.DMA1_Channel5_IRQHandler) refers to dma_stm32f10x.o(i.DMA1_Channel5_Event) for DMA1_Channel5_Event
    dma_stm32f10x.o(i.DMA1_Channel6_IRQHandler) refers to dma_stm32f10x.o(i.DMA1_Channel6_Event) for DMA1_Channel6_Event
    dma_stm32f10x.o(i.DMA1_Channel7_IRQHandler) refers to dma_stm32f10x.o(i.DMA1_Channel7_Event) for DMA1_Channel7_Event
    dma_stm32f10x.o(i.DMA2_Channel1_IRQHandler) refers to dma_stm32f10x.o(i.DMA2_Channel1_Event) for DMA2_Channel1_Event
    dma_stm32f10x.o(i.DMA2_Channel2_IRQHandler) refers to dma_stm32f10x.o(i.DMA2_Channel2_Event) for DMA2_Channel2_Event
    dma_stm32f10x.o(i.DMA2_Channel3_IRQHandler) refers to dma_stm32f10x.o(i.DMA2_Channel3_Event) for DMA2_Channel3_Event
    dma_stm32f10x.o(i.DMA2_Channel4_5_IRQHandler) refers to dma_stm32f10x.o(i.DMA2_Channel4_Event) for DMA2_Channel4_Event
    dma_stm32f10x.o(i.DMA2_Channel4_5_IRQHandler) refers to dma_stm32f10x.o(i.DMA2_Channel5_Event) for DMA2_Channel5_Event
    dma_stm32f10x.o(i.DMA2_Channel4_IRQHandler) refers to dma_stm32f10x.o(i.DMA2_Channel4_Event) for DMA2_Channel4_Event
    dma_stm32f10x.o(i.DMA_ChannelInitialize) refers to dma_stm32f10x.o(i.__NVIC_ClearPendingIRQ) for __NVIC_ClearPendingIRQ
    dma_stm32f10x.o(i.DMA_ChannelInitialize) refers to dma_stm32f10x.o(i.__NVIC_EnableIRQ) for __NVIC_EnableIRQ
    dma_stm32f10x.o(i.DMA_ChannelInitialize) refers to dma_stm32f10x.o(.data) for DMA1_Channel
    dma_stm32f10x.o(i.DMA_ChannelUninitialize) refers to dma_stm32f10x.o(i.__NVIC_DisableIRQ) for __NVIC_DisableIRQ
    dma_stm32f10x.o(i.DMA_ChannelUninitialize) refers to dma_stm32f10x.o(.data) for DMA1_Channel
    gpio_stm32f10x.o(i.GPIO_PinConfigure) refers to gpio_stm32f10x.o(i.GPIO_GetPortClockState) for GPIO_GetPortClockState
    gpio_stm32f10x.o(i.GPIO_PinConfigure) refers to gpio_stm32f10x.o(i.GPIO_PortClock) for GPIO_PortClock
    startup_stm32f10x_hd.o(RESET) refers to startup_stm32f10x_hd.o(STACK) for __initial_sp
    startup_stm32f10x_hd.o(RESET) refers to startup_stm32f10x_hd.o(.text) for Reset_Handler
    startup_stm32f10x_hd.o(RESET) refers to dma_stm32f10x.o(i.DMA1_Channel1_IRQHandler) for DMA1_Channel1_IRQHandler
    startup_stm32f10x_hd.o(RESET) refers to dma_stm32f10x.o(i.DMA1_Channel2_IRQHandler) for DMA1_Channel2_IRQHandler
    startup_stm32f10x_hd.o(RESET) refers to dma_stm32f10x.o(i.DMA1_Channel3_IRQHandler) for DMA1_Channel3_IRQHandler
    startup_stm32f10x_hd.o(RESET) refers to dma_stm32f10x.o(i.DMA1_Channel4_IRQHandler) for DMA1_Channel4_IRQHandler
    startup_stm32f10x_hd.o(RESET) refers to dma_stm32f10x.o(i.DMA1_Channel5_IRQHandler) for DMA1_Channel5_IRQHandler
    startup_stm32f10x_hd.o(RESET) refers to dma_stm32f10x.o(i.DMA1_Channel6_IRQHandler) for DMA1_Channel6_IRQHandler
    startup_stm32f10x_hd.o(RESET) refers to dma_stm32f10x.o(i.DMA1_Channel7_IRQHandler) for DMA1_Channel7_IRQHandler
    startup_stm32f10x_hd.o(RESET) refers to main.o(i.EXTI9_5_IRQHandler) for EXTI9_5_IRQHandler
    startup_stm32f10x_hd.o(RESET) refers to time.o(i.TIM4_IRQHandler) for TIM4_IRQHandler
    startup_stm32f10x_hd.o(RESET) refers to dma_stm32f10x.o(i.DMA2_Channel1_IRQHandler) for DMA2_Channel1_IRQHandler
    startup_stm32f10x_hd.o(RESET) refers to dma_stm32f10x.o(i.DMA2_Channel2_IRQHandler) for DMA2_Channel2_IRQHandler
    startup_stm32f10x_hd.o(RESET) refers to dma_stm32f10x.o(i.DMA2_Channel3_IRQHandler) for DMA2_Channel3_IRQHandler
    startup_stm32f10x_hd.o(RESET) refers to dma_stm32f10x.o(i.DMA2_Channel4_5_IRQHandler) for DMA2_Channel4_5_IRQHandler
    startup_stm32f10x_hd.o(.text) refers to system_stm32f10x.o(i.SystemInit) for SystemInit
    startup_stm32f10x_hd.o(.text) refers to entry.o(.ARM.Collect$$$$00000000) for __main
    system_stm32f10x.o(i.SetSysClock) refers to system_stm32f10x.o(i.SetSysClockTo72) for SetSysClockTo72
    system_stm32f10x.o(i.SystemCoreClockUpdate) refers to system_stm32f10x.o(.data) for SystemCoreClock
    system_stm32f10x.o(i.SystemInit) refers to system_stm32f10x.o(i.SetSysClock) for SetSysClock
    entry.o(.ARM.Collect$$$$00000000) refers (Special) to entry10a.o(.ARM.Collect$$$$0000000F) for __rt_final_cpp
    entry.o(.ARM.Collect$$$$00000000) refers (Special) to entry11a.o(.ARM.Collect$$$$00000011) for __rt_final_exit
    entry.o(.ARM.Collect$$$$00000000) refers (Special) to entry12b.o(.ARM.Collect$$$$0000000E) for __rt_lib_shutdown_fini
    entry.o(.ARM.Collect$$$$00000000) refers (Special) to entry7b.o(.ARM.Collect$$$$00000008) for _main_clock
    entry.o(.ARM.Collect$$$$00000000) refers (Special) to entry8b.o(.ARM.Collect$$$$0000000A) for _main_cpp_init
    entry.o(.ARM.Collect$$$$00000000) refers (Special) to entry9a.o(.ARM.Collect$$$$0000000B) for _main_init
    entry.o(.ARM.Collect$$$$00000000) refers (Special) to entry5.o(.ARM.Collect$$$$00000004) for _main_scatterload
    entry.o(.ARM.Collect$$$$00000000) refers (Special) to entry2.o(.ARM.Collect$$$$00000001) for _main_stk
    fwrite.o(i.fwrite) refers to init.o(i.fputc) for fputc
    fwrite_e.o(.text) refers to init.o(i.fputc) for fputc
    ldiv.o(.text) refers to uldiv.o(.text) for __aeabi_uldivmod
    printfb.o(i.__0fprintf$bare) refers to printfb.o(i._printf_core) for _printf_core
    printfb.o(i.__0fprintf$bare) refers to init.o(i.fputc) for fputc
    printfb.o(i.__0printf$bare) refers to printfb.o(i._printf_core) for _printf_core
    printfb.o(i.__0printf$bare) refers to init.o(i.fputc) for fputc
    printfb.o(i.__0printf$bare) refers to stdout.o(.data) for __stdout
    printfb.o(i.__0snprintf$bare) refers to printfb.o(i._printf_core) for _printf_core
    printfb.o(i.__0snprintf$bare) refers to printfb.o(i._snputc) for _snputc
    printfb.o(i.__0sprintf$bare) refers to printfb.o(i._printf_core) for _printf_core
    printfb.o(i.__0sprintf$bare) refers to printfb.o(i._sputc) for _sputc
    printfb.o(i.__0vfprintf$bare) refers to printfb.o(i._printf_core) for _printf_core
    printfb.o(i.__0vfprintf$bare) refers to init.o(i.fputc) for fputc
    printfb.o(i.__0vprintf$bare) refers to printfb.o(i._printf_core) for _printf_core
    printfb.o(i.__0vprintf$bare) refers to init.o(i.fputc) for fputc
    printfb.o(i.__0vprintf$bare) refers to stdout.o(.data) for __stdout
    printfb.o(i.__0vsnprintf$bare) refers to printfb.o(i._printf_core) for _printf_core
    printfb.o(i.__0vsnprintf$bare) refers to printfb.o(i._snputc) for _snputc
    printfb.o(i.__0vsprintf$bare) refers to printfb.o(i._printf_core) for _printf_core
    printfb.o(i.__0vsprintf$bare) refers to printfb.o(i._sputc) for _sputc
    printf0.o(i.__0fprintf$0) refers to printf0.o(i._printf_core) for _printf_core
    printf0.o(i.__0fprintf$0) refers to init.o(i.fputc) for fputc
    printf0.o(i.__0printf$0) refers to printf0.o(i._printf_core) for _printf_core
    printf0.o(i.__0printf$0) refers to init.o(i.fputc) for fputc
    printf0.o(i.__0printf$0) refers to stdout.o(.data) for __stdout
    printf0.o(i.__0snprintf$0) refers to printf0.o(i._printf_core) for _printf_core
    printf0.o(i.__0snprintf$0) refers to printf0.o(i._snputc) for _snputc
    printf0.o(i.__0sprintf$0) refers to printf0.o(i._printf_core) for _printf_core
    printf0.o(i.__0sprintf$0) refers to printf0.o(i._sputc) for _sputc
    printf0.o(i.__0vfprintf$0) refers to printf0.o(i._printf_core) for _printf_core
    printf0.o(i.__0vfprintf$0) refers to init.o(i.fputc) for fputc
    printf0.o(i.__0vprintf$0) refers to printf0.o(i._printf_core) for _printf_core
    printf0.o(i.__0vprintf$0) refers to init.o(i.fputc) for fputc
    printf0.o(i.__0vprintf$0) refers to stdout.o(.data) for __stdout
    printf0.o(i.__0vsnprintf$0) refers to printf0.o(i._printf_core) for _printf_core
    printf0.o(i.__0vsnprintf$0) refers to printf0.o(i._snputc) for _snputc
    printf0.o(i.__0vsprintf$0) refers to printf0.o(i._printf_core) for _printf_core
    printf0.o(i.__0vsprintf$0) refers to printf0.o(i._sputc) for _sputc
    printf1.o(i.__0fprintf$1) refers to printf1.o(i._printf_core) for _printf_core
    printf1.o(i.__0fprintf$1) refers to init.o(i.fputc) for fputc
    printf1.o(i.__0printf$1) refers to printf1.o(i._printf_core) for _printf_core
    printf1.o(i.__0printf$1) refers to init.o(i.fputc) for fputc
    printf1.o(i.__0printf$1) refers to stdout.o(.data) for __stdout
    printf1.o(i.__0snprintf$1) refers to printf1.o(i._printf_core) for _printf_core
    printf1.o(i.__0snprintf$1) refers to printf1.o(i._snputc) for _snputc
    printf1.o(i.__0sprintf$1) refers to printf1.o(i._printf_core) for _printf_core
    printf1.o(i.__0sprintf$1) refers to printf1.o(i._sputc) for _sputc
    printf1.o(i.__0vfprintf$1) refers to printf1.o(i._printf_core) for _printf_core
    printf1.o(i.__0vfprintf$1) refers to init.o(i.fputc) for fputc
    printf1.o(i.__0vprintf$1) refers to printf1.o(i._printf_core) for _printf_core
    printf1.o(i.__0vprintf$1) refers to init.o(i.fputc) for fputc
    printf1.o(i.__0vprintf$1) refers to stdout.o(.data) for __stdout
    printf1.o(i.__0vsnprintf$1) refers to printf1.o(i._printf_core) for _printf_core
    printf1.o(i.__0vsnprintf$1) refers to printf1.o(i._snputc) for _snputc
    printf1.o(i.__0vsprintf$1) refers to printf1.o(i._printf_core) for _printf_core
    printf1.o(i.__0vsprintf$1) refers to printf1.o(i._sputc) for _sputc
    printf1.o(i._printf_core) refers to uidiv.o(.text) for __aeabi_uidivmod
    printf2.o(i.__0fprintf$2) refers to printf2.o(i._printf_core) for _printf_core
    printf2.o(i.__0fprintf$2) refers to init.o(i.fputc) for fputc
    printf2.o(i.__0printf$2) refers to printf2.o(i._printf_core) for _printf_core
    printf2.o(i.__0printf$2) refers to init.o(i.fputc) for fputc
    printf2.o(i.__0printf$2) refers to stdout.o(.data) for __stdout
    printf2.o(i.__0snprintf$2) refers to printf2.o(i._printf_core) for _printf_core
    printf2.o(i.__0snprintf$2) refers to printf2.o(i._snputc) for _snputc
    printf2.o(i.__0sprintf$2) refers to printf2.o(i._printf_core) for _printf_core
    printf2.o(i.__0sprintf$2) refers to printf2.o(i._sputc) for _sputc
    printf2.o(i.__0vfprintf$2) refers to printf2.o(i._printf_core) for _printf_core
    printf2.o(i.__0vfprintf$2) refers to init.o(i.fputc) for fputc
    printf2.o(i.__0vprintf$2) refers to printf2.o(i._printf_core) for _printf_core
    printf2.o(i.__0vprintf$2) refers to init.o(i.fputc) for fputc
    printf2.o(i.__0vprintf$2) refers to stdout.o(.data) for __stdout
    printf2.o(i.__0vsnprintf$2) refers to printf2.o(i._printf_core) for _printf_core
    printf2.o(i.__0vsnprintf$2) refers to printf2.o(i._snputc) for _snputc
    printf2.o(i.__0vsprintf$2) refers to printf2.o(i._printf_core) for _printf_core
    printf2.o(i.__0vsprintf$2) refers to printf2.o(i._sputc) for _sputc
    printf3.o(i.__0fprintf$3) refers to printf3.o(i._printf_core) for _printf_core
    printf3.o(i.__0fprintf$3) refers to init.o(i.fputc) for fputc
    printf3.o(i.__0printf$3) refers to printf3.o(i._printf_core) for _printf_core
    printf3.o(i.__0printf$3) refers to init.o(i.fputc) for fputc
    printf3.o(i.__0printf$3) refers to stdout.o(.data) for __stdout
    printf3.o(i.__0snprintf$3) refers to printf3.o(i._printf_core) for _printf_core
    printf3.o(i.__0snprintf$3) refers to printf3.o(i._snputc) for _snputc
    printf3.o(i.__0sprintf$3) refers to printf3.o(i._printf_core) for _printf_core
    printf3.o(i.__0sprintf$3) refers to printf3.o(i._sputc) for _sputc
    printf3.o(i.__0vfprintf$3) refers to printf3.o(i._printf_core) for _printf_core
    printf3.o(i.__0vfprintf$3) refers to init.o(i.fputc) for fputc
    printf3.o(i.__0vprintf$3) refers to printf3.o(i._printf_core) for _printf_core
    printf3.o(i.__0vprintf$3) refers to init.o(i.fputc) for fputc
    printf3.o(i.__0vprintf$3) refers to stdout.o(.data) for __stdout
    printf3.o(i.__0vsnprintf$3) refers to printf3.o(i._printf_core) for _printf_core
    printf3.o(i.__0vsnprintf$3) refers to printf3.o(i._snputc) for _snputc
    printf3.o(i.__0vsprintf$3) refers to printf3.o(i._printf_core) for _printf_core
    printf3.o(i.__0vsprintf$3) refers to printf3.o(i._sputc) for _sputc
    printf3.o(i._printf_core) refers to uidiv.o(.text) for __aeabi_uidivmod
    printf4.o(i.__0fprintf$4) refers to printf4.o(i._printf_core) for _printf_core
    printf4.o(i.__0fprintf$4) refers to init.o(i.fputc) for fputc
    printf4.o(i.__0printf$4) refers to printf4.o(i._printf_core) for _printf_core
    printf4.o(i.__0printf$4) refers to init.o(i.fputc) for fputc
    printf4.o(i.__0printf$4) refers to stdout.o(.data) for __stdout
    printf4.o(i.__0snprintf$4) refers to printf4.o(i._printf_core) for _printf_core
    printf4.o(i.__0snprintf$4) refers to printf4.o(i._snputc) for _snputc
    printf4.o(i.__0sprintf$4) refers to printf4.o(i._printf_core) for _printf_core
    printf4.o(i.__0sprintf$4) refers to printf4.o(i._sputc) for _sputc
    printf4.o(i.__0vfprintf$4) refers to printf4.o(i._printf_core) for _printf_core
    printf4.o(i.__0vfprintf$4) refers to init.o(i.fputc) for fputc
    printf4.o(i.__0vprintf$4) refers to printf4.o(i._printf_core) for _printf_core
    printf4.o(i.__0vprintf$4) refers to init.o(i.fputc) for fputc
    printf4.o(i.__0vprintf$4) refers to stdout.o(.data) for __stdout
    printf4.o(i.__0vsnprintf$4) refers to printf4.o(i._printf_core) for _printf_core
    printf4.o(i.__0vsnprintf$4) refers to printf4.o(i._snputc) for _snputc
    printf4.o(i.__0vsprintf$4) refers to printf4.o(i._printf_core) for _printf_core
    printf4.o(i.__0vsprintf$4) refers to printf4.o(i._sputc) for _sputc
    printf4.o(i._printf_core) refers to uldiv.o(.text) for __aeabi_uldivmod
    printf5.o(i.__0fprintf$5) refers to printf5.o(i._printf_core) for _printf_core
    printf5.o(i.__0fprintf$5) refers to init.o(i.fputc) for fputc
    printf5.o(i.__0printf$5) refers to printf5.o(i._printf_core) for _printf_core
    printf5.o(i.__0printf$5) refers to init.o(i.fputc) for fputc
    printf5.o(i.__0printf$5) refers to stdout.o(.data) for __stdout
    printf5.o(i.__0snprintf$5) refers to printf5.o(i._printf_core) for _printf_core
    printf5.o(i.__0snprintf$5) refers to printf5.o(i._snputc) for _snputc
    printf5.o(i.__0sprintf$5) refers to printf5.o(i._printf_core) for _printf_core
    printf5.o(i.__0sprintf$5) refers to printf5.o(i._sputc) for _sputc
    printf5.o(i.__0vfprintf$5) refers to printf5.o(i._printf_core) for _printf_core
    printf5.o(i.__0vfprintf$5) refers to init.o(i.fputc) for fputc
    printf5.o(i.__0vprintf$5) refers to printf5.o(i._printf_core) for _printf_core
    printf5.o(i.__0vprintf$5) refers to init.o(i.fputc) for fputc
    printf5.o(i.__0vprintf$5) refers to stdout.o(.data) for __stdout
    printf5.o(i.__0vsnprintf$5) refers to printf5.o(i._printf_core) for _printf_core
    printf5.o(i.__0vsnprintf$5) refers to printf5.o(i._snputc) for _snputc
    printf5.o(i.__0vsprintf$5) refers to printf5.o(i._printf_core) for _printf_core
    printf5.o(i.__0vsprintf$5) refers to printf5.o(i._sputc) for _sputc
    printf5.o(i._printf_core) refers to uldiv.o(.text) for __aeabi_uldivmod
    printf6.o(i.__0fprintf$6) refers to printf6.o(i._printf_core) for _printf_core
    printf6.o(i.__0fprintf$6) refers to init.o(i.fputc) for fputc
    printf6.o(i.__0printf$6) refers to printf6.o(i._printf_core) for _printf_core
    printf6.o(i.__0printf$6) refers to init.o(i.fputc) for fputc
    printf6.o(i.__0printf$6) refers to stdout.o(.data) for __stdout
    printf6.o(i.__0snprintf$6) refers to printf6.o(i._printf_core) for _printf_core
    printf6.o(i.__0snprintf$6) refers to printf6.o(i._snputc) for _snputc
    printf6.o(i.__0sprintf$6) refers to printf6.o(i._printf_core) for _printf_core
    printf6.o(i.__0sprintf$6) refers to printf6.o(i._sputc) for _sputc
    printf6.o(i.__0vfprintf$6) refers to printf6.o(i._printf_core) for _printf_core
    printf6.o(i.__0vfprintf$6) refers to init.o(i.fputc) for fputc
    printf6.o(i.__0vprintf$6) refers to printf6.o(i._printf_core) for _printf_core
    printf6.o(i.__0vprintf$6) refers to init.o(i.fputc) for fputc
    printf6.o(i.__0vprintf$6) refers to stdout.o(.data) for __stdout
    printf6.o(i.__0vsnprintf$6) refers to printf6.o(i._printf_core) for _printf_core
    printf6.o(i.__0vsnprintf$6) refers to printf6.o(i._snputc) for _snputc
    printf6.o(i.__0vsprintf$6) refers to printf6.o(i._printf_core) for _printf_core
    printf6.o(i.__0vsprintf$6) refers to printf6.o(i._sputc) for _sputc
    printf6.o(i._printf_core) refers to printf6.o(i._printf_pre_padding) for _printf_pre_padding
    printf6.o(i._printf_core) refers to uidiv.o(.text) for __aeabi_uidivmod
    printf6.o(i._printf_core) refers to printf6.o(i._printf_post_padding) for _printf_post_padding
    printf7.o(i.__0fprintf$7) refers to printf7.o(i._printf_core) for _printf_core
    printf7.o(i.__0fprintf$7) refers to init.o(i.fputc) for fputc
    printf7.o(i.__0printf$7) refers to printf7.o(i._printf_core) for _printf_core
    printf7.o(i.__0printf$7) refers to init.o(i.fputc) for fputc
    printf7.o(i.__0printf$7) refers to stdout.o(.data) for __stdout
    printf7.o(i.__0snprintf$7) refers to printf7.o(i._printf_core) for _printf_core
    printf7.o(i.__0snprintf$7) refers to printf7.o(i._snputc) for _snputc
    printf7.o(i.__0sprintf$7) refers to printf7.o(i._printf_core) for _printf_core
    printf7.o(i.__0sprintf$7) refers to printf7.o(i._sputc) for _sputc
    printf7.o(i.__0vfprintf$7) refers to printf7.o(i._printf_core) for _printf_core
    printf7.o(i.__0vfprintf$7) refers to init.o(i.fputc) for fputc
    printf7.o(i.__0vprintf$7) refers to printf7.o(i._printf_core) for _printf_core
    printf7.o(i.__0vprintf$7) refers to init.o(i.fputc) for fputc
    printf7.o(i.__0vprintf$7) refers to stdout.o(.data) for __stdout
    printf7.o(i.__0vsnprintf$7) refers to printf7.o(i._printf_core) for _printf_core
    printf7.o(i.__0vsnprintf$7) refers to printf7.o(i._snputc) for _snputc
    printf7.o(i.__0vsprintf$7) refers to printf7.o(i._printf_core) for _printf_core
    printf7.o(i.__0vsprintf$7) refers to printf7.o(i._sputc) for _sputc
    printf7.o(i._printf_core) refers to printf7.o(i._printf_pre_padding) for _printf_pre_padding
    printf7.o(i._printf_core) refers to uldiv.o(.text) for __aeabi_uldivmod
    printf7.o(i._printf_core) refers to printf7.o(i._printf_post_padding) for _printf_post_padding
    printf8.o(i.__0fprintf$8) refers to printf8.o(i._printf_core) for _printf_core
    printf8.o(i.__0fprintf$8) refers to init.o(i.fputc) for fputc
    printf8.o(i.__0printf$8) refers to printf8.o(i._printf_core) for _printf_core
    printf8.o(i.__0printf$8) refers to init.o(i.fputc) for fputc
    printf8.o(i.__0printf$8) refers to stdout.o(.data) for __stdout
    printf8.o(i.__0snprintf$8) refers to printf8.o(i._printf_core) for _printf_core
    printf8.o(i.__0snprintf$8) refers to printf8.o(i._snputc) for _snputc
    printf8.o(i.__0sprintf$8) refers to printf8.o(i._printf_core) for _printf_core
    printf8.o(i.__0sprintf$8) refers to printf8.o(i._sputc) for _sputc
    printf8.o(i.__0vfprintf$8) refers to printf8.o(i._printf_core) for _printf_core
    printf8.o(i.__0vfprintf$8) refers to init.o(i.fputc) for fputc
    printf8.o(i.__0vprintf$8) refers to printf8.o(i._printf_core) for _printf_core
    printf8.o(i.__0vprintf$8) refers to init.o(i.fputc) for fputc
    printf8.o(i.__0vprintf$8) refers to stdout.o(.data) for __stdout
    printf8.o(i.__0vsnprintf$8) refers to printf8.o(i._printf_core) for _printf_core
    printf8.o(i.__0vsnprintf$8) refers to printf8.o(i._snputc) for _snputc
    printf8.o(i.__0vsprintf$8) refers to printf8.o(i._printf_core) for _printf_core
    printf8.o(i.__0vsprintf$8) refers to printf8.o(i._sputc) for _sputc
    printf8.o(i._printf_core) refers to printf8.o(i._printf_pre_padding) for _printf_pre_padding
    printf8.o(i._printf_core) refers to uldiv.o(.text) for __aeabi_uldivmod
    printf8.o(i._printf_core) refers to printf8.o(i._printf_post_padding) for _printf_post_padding
    printfa.o(i.__0fprintf) refers (Special) to iusefp.o(.text) for __I$use$fp
    printfa.o(i.__0fprintf) refers to printfa.o(i._printf_core) for _printf_core
    printfa.o(i.__0fprintf) refers to init.o(i.fputc) for fputc
    printfa.o(i.__0printf) refers (Special) to iusefp.o(.text) for __I$use$fp
    printfa.o(i.__0printf) refers to printfa.o(i._printf_core) for _printf_core
    printfa.o(i.__0printf) refers to init.o(i.fputc) for fputc
    printfa.o(i.__0printf) refers to stdout.o(.data) for __stdout
    printfa.o(i.__0snprintf) refers (Special) to iusefp.o(.text) for __I$use$fp
    printfa.o(i.__0snprintf) refers to printfa.o(i._printf_core) for _printf_core
    printfa.o(i.__0snprintf) refers to printfa.o(i._snputc) for _snputc
    printfa.o(i.__0sprintf) refers (Special) to iusefp.o(.text) for __I$use$fp
    printfa.o(i.__0sprintf) refers to printfa.o(i._printf_core) for _printf_core
    printfa.o(i.__0sprintf) refers to printfa.o(i._sputc) for _sputc
    printfa.o(i.__0vfprintf) refers (Special) to iusefp.o(.text) for __I$use$fp
    printfa.o(i.__0vfprintf) refers to printfa.o(i._printf_core) for _printf_core
    printfa.o(i.__0vfprintf) refers to init.o(i.fputc) for fputc
    printfa.o(i.__0vprintf) refers (Special) to iusefp.o(.text) for __I$use$fp
    printfa.o(i.__0vprintf) refers to printfa.o(i._printf_core) for _printf_core
    printfa.o(i.__0vprintf) refers to init.o(i.fputc) for fputc
    printfa.o(i.__0vprintf) refers to stdout.o(.data) for __stdout
    printfa.o(i.__0vsnprintf) refers (Special) to iusefp.o(.text) for __I$use$fp
    printfa.o(i.__0vsnprintf) refers to printfa.o(i._printf_core) for _printf_core
    printfa.o(i.__0vsnprintf) refers to printfa.o(i._snputc) for _snputc
    printfa.o(i.__0vsprintf) refers (Special) to iusefp.o(.text) for __I$use$fp
    printfa.o(i.__0vsprintf) refers to printfa.o(i._printf_core) for _printf_core
    printfa.o(i.__0vsprintf) refers to printfa.o(i._sputc) for _sputc
    printfa.o(i._fp_digits) refers (Special) to iusefp.o(.text) for __I$use$fp
    printfa.o(i._fp_digits) refers to dmul.o(.text) for __aeabi_dmul
    printfa.o(i._fp_digits) refers to ddiv.o(.text) for __aeabi_ddiv
    printfa.o(i._fp_digits) refers to cdrcmple.o(.text) for __aeabi_cdrcmple
    printfa.o(i._fp_digits) refers to dadd.o(.text) for __aeabi_dadd
    printfa.o(i._fp_digits) refers to dfixul.o(.text) for __aeabi_d2ulz
    printfa.o(i._fp_digits) refers to uldiv.o(.text) for __aeabi_uldivmod
    printfa.o(i._printf_core) refers (Special) to iusefp.o(.text) for __I$use$fp
    printfa.o(i._printf_core) refers to printfa.o(i._printf_pre_padding) for _printf_pre_padding
    printfa.o(i._printf_core) refers to uldiv.o(.text) for __aeabi_uldivmod
    printfa.o(i._printf_core) refers to printfa.o(i._printf_post_padding) for _printf_post_padding
    printfa.o(i._printf_core) refers to printfa.o(i._fp_digits) for _fp_digits
    printfa.o(i._printf_core) refers to uidiv.o(.text) for __aeabi_uidivmod
    printfa.o(i._printf_post_padding) refers (Special) to iusefp.o(.text) for __I$use$fp
    printfa.o(i._printf_pre_padding) refers (Special) to iusefp.o(.text) for __I$use$fp
    printfa.o(i._snputc) refers (Special) to iusefp.o(.text) for __I$use$fp
    printfa.o(i._sputc) refers (Special) to iusefp.o(.text) for __I$use$fp
    malloc.o(i.free) refers to mvars.o(.data) for __microlib_freelist
    malloc.o(i.malloc) refers to mvars.o(.data) for __microlib_freelist_initialised
    malloc.o(i.malloc) refers to mvars.o(.data) for __microlib_freelist
    malloc.o(i.malloc) refers to startup_stm32f10x_hd.o(HEAP) for __heap_base
    mallocr.o(i.__free$realloc) refers to mvars.o(.data) for __microlib_freelist
    mallocr.o(i.__malloc$realloc) refers to mallocr.o(i.internal_alloc) for internal_alloc
    mallocr.o(i.__malloc$realloc) refers to mvars.o(.data) for __microlib_freelist_initialised
    mallocr.o(i.__malloc$realloc) refers to startup_stm32f10x_hd.o(HEAP) for __heap_base
    mallocr.o(i.__malloc$realloc) refers to mvars.o(.data) for __microlib_freelist
    mallocr.o(i.internal_alloc) refers to memmovea.o(.text) for __aeabi_memcpy
    mallocr.o(i.internal_alloc) refers to mvars.o(.data) for __microlib_freelist
    mallocr.o(i.realloc) refers to mallocr.o(i.__free$realloc) for __free$realloc
    mallocr.o(i.realloc) refers to mallocr.o(i.internal_alloc) for internal_alloc
    mallocr.o(i.realloc) refers to mallocr.o(i.__malloc$realloc) for __malloc$realloc
    mallocr.o(i.realloc) refers to mvars.o(.data) for __microlib_freelist
    malloca.o(i.__aligned_malloc) refers to mvars.o(.data) for __microlib_freelist_initialised
    malloca.o(i.__aligned_malloc) refers to mvars.o(.data) for __microlib_freelist
    malloca.o(i.__aligned_malloc) refers to startup_stm32f10x_hd.o(HEAP) for __heap_base
    malloca.o(i.__free$memalign) refers to mvars.o(.data) for __microlib_freelist
    malloca.o(i.__malloc$memalign) refers to malloca.o(i.__aligned_malloc) for __aligned_malloc
    mallocra.o(i.__aligned_malloc$realloc) refers to mallocra.o(i.internal_alloc) for internal_alloc
    mallocra.o(i.__aligned_malloc$realloc) refers to mvars.o(.data) for __microlib_freelist_initialised
    mallocra.o(i.__aligned_malloc$realloc) refers to startup_stm32f10x_hd.o(HEAP) for __heap_base
    mallocra.o(i.__aligned_malloc$realloc) refers to mvars.o(.data) for __microlib_freelist
    mallocra.o(i.__free$realloc$memalign) refers to mvars.o(.data) for __microlib_freelist
    mallocra.o(i.__malloc$realloc$memalign) refers to mallocra.o(i.__aligned_malloc$realloc) for __aligned_malloc$realloc
    mallocra.o(i.__realloc$memalign) refers to mallocra.o(i.__free$realloc$memalign) for __free$realloc$memalign
    mallocra.o(i.__realloc$memalign) refers to mallocra.o(i.internal_alloc) for internal_alloc
    mallocra.o(i.__realloc$memalign) refers to mallocra.o(i.__malloc$realloc$memalign) for __malloc$realloc$memalign
    mallocra.o(i.__realloc$memalign) refers to mvars.o(.data) for __microlib_freelist
    mallocra.o(i.internal_alloc) refers to memmovea.o(.text) for __aeabi_memcpy
    mallocra.o(i.internal_alloc) refers to mvars.o(.data) for __microlib_freelist
    errno.o(i.__aeabi_errno_addr) refers to errno.o(.data) for .data
    errno.o(i.__read_errno) refers to errno.o(.data) for .data
    errno.o(i.__set_errno) refers to errno.o(.data) for .data
    strtol.o(.text) refers to ctype_o.o(.text) for __rt_ctype_table
    strtol.o(.text) refers to _strtoul.o(.text) for _strtoul
    strtol.o(.text) refers to errno.o(i.__aeabi_errno_addr) for __aeabi_errno_addr
    entry2.o(.ARM.Collect$$$$00000001) refers to entry2.o(.ARM.Collect$$$$00002712) for __lit__00000000
    entry2.o(.ARM.Collect$$$$00002712) refers to startup_stm32f10x_hd.o(STACK) for __initial_sp
    entry2.o(__vectab_stack_and_reset_area) refers to startup_stm32f10x_hd.o(STACK) for __initial_sp
    entry2.o(__vectab_stack_and_reset_area) refers to entry.o(.ARM.Collect$$$$00000000) for __main
    entry5.o(.ARM.Collect$$$$00000004) refers to init.o(.text) for __scatterload
    entry9a.o(.ARM.Collect$$$$0000000B) refers to main.o(i.main) for main
    entry9b.o(.ARM.Collect$$$$0000000C) refers to main.o(i.main) for main
    uldiv.o(.text) refers to llushr.o(.text) for __aeabi_llsr
    uldiv.o(.text) refers to llshl.o(.text) for __aeabi_llsl
    ctype_o.o(.text) refers to ctype_o.o(.constdata) for .constdata
    ctype_o.o(.constdata) refers to ctype_o.o(.constdata) for __ctype_table
    isalnum_o.o(.text) refers to ctype_o.o(.text) for __rt_ctype_table
    isalpha_o.o(.text) refers to ctype_o.o(.text) for __rt_ctype_table
    isblank_o.o(.text) refers to ctype_o.o(.constdata) for __ctype_table
    iscntrl_o.o(.text) refers to ctype_o.o(.text) for __rt_ctype_table
    isdigit_o.o(.text) refers to ctype_o.o(.text) for __rt_ctype_table
    isgraph_o.o(.text) refers to ctype_o.o(.text) for __rt_ctype_table
    islower_o.o(.text) refers to ctype_o.o(.text) for __rt_ctype_table
    isprint_o.o(.text) refers to ctype_o.o(.text) for __rt_ctype_table
    ispunct_o.o(.text) refers to ctype_o.o(.text) for __rt_ctype_table
    isspace_o.o(.text) refers to ctype_o.o(.text) for __rt_ctype_table
    isupper_o.o(.text) refers to ctype_o.o(.text) for __rt_ctype_table
    isxdigit_o.o(.text) refers to ctype_o.o(.text) for __rt_ctype_table
    _strtoul.o(.text) refers to _chval.o(.text) for _chval
    _strtoul.o(.text) refers to errno.o(i.__aeabi_errno_addr) for __aeabi_errno_addr
    dadd.o(.text) refers to llshl.o(.text) for __aeabi_llsl
    dadd.o(.text) refers to llsshr.o(.text) for __aeabi_lasr
    dadd.o(.text) refers to depilogue.o(.text) for _double_epilogue
    dmul.o(.text) refers to depilogue.o(.text) for _double_epilogue
    ddiv.o(.text) refers to depilogue.o(.text) for _double_round
    dfixul.o(.text) refers to llushr.o(.text) for __aeabi_llsr
    dfixul.o(.text) refers to llshl.o(.text) for __aeabi_llsl
    init.o(.text) refers to entry5.o(.ARM.Collect$$$$00000004) for __main_after_scatterload
    depilogue.o(.text) refers to llshl.o(.text) for __aeabi_llsl
    depilogue.o(.text) refers to llushr.o(.text) for __aeabi_llsr
    image.o(i.zbar_image_free_data) refers to image.o(i.zbar_image_create) for zbar_image_create
    image.o(i.zbar_image_free_data) refers to zbar_config.o(i.Zbar_memcpy) for Zbar_memcpy
    img_scanner.o(i.zbar_image_scanner_recycle_image) refers to img_scanner.o(i.recycle_syms) for recycle_syms
    img_scanner.o(i.zbar_image_scanner_recycle_image) refers to symbol.o(i._zbar_symbol_set_free) for _zbar_symbol_set_free
    img_scanner.o(i._zbar_image_scanner_alloc_sym) refers to zbar_config.o(i.Zbar_calloc) for Zbar_calloc
    img_scanner.o(i._zbar_image_scanner_alloc_sym) refers to zbar_config.o(i.Zbar_free) for Zbar_free
    img_scanner.o(i._zbar_image_scanner_alloc_sym) refers to zbar_config.o(i.Zbar_malloc) for Zbar_malloc
    scanner.o(i.zbar_scanner_flush) refers to scanner.o(i.process_edge) for process_edge
    scanner.o(i.zbar_scanner_flush) refers to decoder.o(i.zbar_decode_width) for zbar_decode_width
    symbol.o(i._zbar_symbol_set_free) refers to symbol.o(i._zbar_symbol_refcnt) for _zbar_symbol_refcnt
    symbol.o(i._zbar_symbol_set_free) refers to zbar_config.o(i.Zbar_free) for Zbar_free


==============================================================================

Removing Unused input sections from the image.

    Removing main.o(.rev16_text), (4 bytes).
    Removing main.o(.revsh_text), (4 bytes).
    Removing main.o(.rrx_text), (6 bytes).
    Removing main.o(i.My_EXTI_Init), (216 bytes).
    Removing main.o(i.delay), (14 bytes).
    Removing init.o(.rev16_text), (4 bytes).
    Removing init.o(.revsh_text), (4 bytes).
    Removing init.o(.rrx_text), (6 bytes).
    Removing init.o(i.Serial_SendArray2), (26 bytes).
    Removing init.o(i.Serial_SendArray4), (26 bytes).
    Removing sram.o(.rev16_text), (4 bytes).
    Removing sram.o(.revsh_text), (4 bytes).
    Removing sram.o(.rrx_text), (6 bytes).
    Removing sram.o(i.FSMC_SRAM_ReadBuffer), (22 bytes).
    Removing sram.o(i.FSMC_SRAM_WriteBuffer), (24 bytes).
    Removing malloc.o(.rev16_text), (4 bytes).
    Removing malloc.o(.revsh_text), (4 bytes).
    Removing malloc.o(.rrx_text), (6 bytes).
    Removing config.o(i.zbar_parse_config), (904 bytes).
    Removing decoder.o(i._zbar_decoder_buf_dump), (176 bytes).
    Removing decoder.o(i.zbar_decoder_get_color), (12 bytes).
    Removing decoder.o(.data), (8 bytes).
    Removing image.o(i.zbar_image_copy), (56 bytes).
    Removing image.o(i.zbar_image_get_data), (6 bytes).
    Removing image.o(i.zbar_image_get_data_length), (6 bytes).
    Removing image.o(i.zbar_image_get_format), (6 bytes).
    Removing image.o(i.zbar_image_get_height), (6 bytes).
    Removing image.o(i.zbar_image_get_sequence), (6 bytes).
    Removing image.o(i.zbar_image_get_symbols), (6 bytes).
    Removing image.o(i.zbar_image_get_userdata), (6 bytes).
    Removing image.o(i.zbar_image_get_width), (6 bytes).
    Removing image.o(i.zbar_image_ref), (16 bytes).
    Removing image.o(i.zbar_image_set_sequence), (4 bytes).
    Removing image.o(i.zbar_image_set_symbols), (34 bytes).
    Removing image.o(i.zbar_image_set_userdata), (4 bytes).
    Removing image.o(i.zbar_image_write), (480 bytes).
    Removing image.o(.constdata), (17 bytes).
    Removing img_scanner.o(i.zbar_image_scanner_enable_cache), (34 bytes).
    Removing img_scanner.o(i.zbar_image_scanner_get_results), (6 bytes).
    Removing img_scanner.o(i.zbar_image_scanner_set_data_handler), (12 bytes).
    Removing scanner.o(i.zbar_scanner_get_color), (16 bytes).
    Removing scanner.o(i.zbar_scanner_get_state), (162 bytes).
    Removing symbol.o(i.zbar_get_addon_name), (44 bytes).
    Removing symbol.o(i.zbar_symbol_first_component), (18 bytes).
    Removing symbol.o(i.zbar_symbol_get_components), (6 bytes).
    Removing symbol.o(i.zbar_symbol_get_count), (6 bytes).
    Removing symbol.o(i.zbar_symbol_get_data_length), (6 bytes).
    Removing symbol.o(i.zbar_symbol_get_loc_size), (6 bytes).
    Removing symbol.o(i.zbar_symbol_get_loc_x), (22 bytes).
    Removing symbol.o(i.zbar_symbol_get_loc_y), (24 bytes).
    Removing symbol.o(i.zbar_symbol_get_quality), (6 bytes).
    Removing symbol.o(i.zbar_symbol_ref), (18 bytes).
    Removing symbol.o(i.zbar_symbol_set_first_symbol), (14 bytes).
    Removing symbol.o(i.zbar_symbol_set_get_size), (6 bytes).
    Removing symbol.o(i.zbar_symbol_xml), (256 bytes).
    Removing symbol.o(.conststring), (84 bytes).
    Removing symbol.o(.data), (16 bytes).
    Removing error.o(i._zbar_error_spew), (48 bytes).
    Removing error.o(i._zbar_error_string), (532 bytes).
    Removing error.o(i._zbar_get_error_code), (8 bytes).
    Removing error.o(i.zbar_increase_verbosity), (36 bytes).
    Removing error.o(i.zbar_set_verbosity), (12 bytes).
    Removing error.o(i.zbar_version), (18 bytes).
    Removing error.o(.constdata), (40 bytes).
    Removing zbar_config.o(.rev16_text), (4 bytes).
    Removing zbar_config.o(.revsh_text), (4 bytes).
    Removing zbar_config.o(.rrx_text), (6 bytes).
    Removing qrdectxt.o(i.enc_list_mtf), (52 bytes).
    Removing qrdectxt.o(i.text_is_ascii), (28 bytes).
    Removing qrdectxt.o(i.text_is_latin1), (34 bytes).
    Removing rs.o(i.rs_compute_genpoly), (116 bytes).
    Removing rs.o(i.rs_encode), (146 bytes).
    Removing rs.o(i.rs_poly_div_x), (26 bytes).
    Removing 24cxx.o(.rev16_text), (4 bytes).
    Removing 24cxx.o(.revsh_text), (4 bytes).
    Removing 24cxx.o(.rrx_text), (6 bytes).
    Removing 24cxx.o(i.AT24CXX_Check), (46 bytes).
    Removing 24cxx.o(i.AT24CXX_Init), (8 bytes).
    Removing 24cxx.o(i.AT24CXX_Read), (34 bytes).
    Removing 24cxx.o(i.AT24CXX_ReadLenByte), (44 bytes).
    Removing 24cxx.o(i.AT24CXX_ReadOneByte), (88 bytes).
    Removing 24cxx.o(i.AT24CXX_Write), (36 bytes).
    Removing 24cxx.o(i.AT24CXX_WriteLenByte), (42 bytes).
    Removing 24cxx.o(i.AT24CXX_WriteOneByte), (80 bytes).
    Removing myiic.o(.rev16_text), (4 bytes).
    Removing myiic.o(.revsh_text), (4 bytes).
    Removing myiic.o(.rrx_text), (6 bytes).
    Removing myiic.o(i.IIC_Ack), (80 bytes).
    Removing myiic.o(i.IIC_Init), (52 bytes).
    Removing myiic.o(i.IIC_NAck), (80 bytes).
    Removing myiic.o(i.IIC_Read_Byte), (112 bytes).
    Removing myiic.o(i.IIC_Send_Byte), (104 bytes).
    Removing myiic.o(i.IIC_Start), (76 bytes).
    Removing myiic.o(i.IIC_Stop), (76 bytes).
    Removing myiic.o(i.IIC_Wait_Ack), (100 bytes).
    Removing lcd.o(.rev16_text), (4 bytes).
    Removing lcd.o(.revsh_text), (4 bytes).
    Removing lcd.o(.rrx_text), (6 bytes).
    Removing lcd.o(i.LCD_DrawFRONT_COLOR), (28 bytes).
    Removing lcd.o(i.LCD_DrawPoint), (28 bytes).
    Removing lcd.o(i.LCD_ReadPoint), (228 bytes).
    Removing lcd.o(i.LCD_SetCursor), (20 bytes).
    Removing lcd.o(i.my_LCD_SetCursor), (52 bytes).
    Removing lcd.o(i.my_LCD_WR_DATA), (96 bytes).
    Removing lcd.o(i.my_LCD_WR_REG), (96 bytes).
    Removing lcd.o(.data), (6 bytes).
    Removing ov7670.o(.rev16_text), (4 bytes).
    Removing ov7670.o(.revsh_text), (4 bytes).
    Removing ov7670.o(.rrx_text), (6 bytes).
    Removing ov7670.o(i.OV7670_Window_Set), (138 bytes).
    Removing sccb.o(.rev16_text), (4 bytes).
    Removing sccb.o(.revsh_text), (4 bytes).
    Removing sccb.o(.rrx_text), (6 bytes).
    Removing time.o(.rev16_text), (4 bytes).
    Removing time.o(.revsh_text), (4 bytes).
    Removing time.o(.rrx_text), (6 bytes).
    Removing time.o(i.TIM4_Init), (104 bytes).
    Removing sys.o(.rev16_text), (4 bytes).
    Removing sys.o(.revsh_text), (4 bytes).
    Removing sys.o(.rrx_text), (6 bytes).
    Removing sys.o(.emb_text), (12 bytes).
    Removing sys.o(i.Ex_NVIC_Config), (160 bytes).
    Removing sys.o(i.JTAG_Set), (48 bytes).
    Removing sys.o(i.MYRCC_DeInit), (104 bytes).
    Removing sys.o(i.MY_NVIC_PriorityGroupConfig), (40 bytes).
    Removing sys.o(i.MY_NVIC_SetVectorTable), (20 bytes).
    Removing sys.o(i.QR_NVIC_Init), (156 bytes).
    Removing sys.o(i.Stm32_Clock_Init), (144 bytes).
    Removing sys.o(i.Sys_Soft_Reset), (16 bytes).
    Removing sys.o(i.Sys_Standby), (76 bytes).
    Removing spi.o(.rev16_text), (4 bytes).
    Removing spi.o(.revsh_text), (4 bytes).
    Removing spi.o(.rrx_text), (6 bytes).
    Removing spi.o(i.SPI_SetSpeed), (38 bytes).
    Removing my_stm32f10x_exti.o(.rev16_text), (4 bytes).
    Removing my_stm32f10x_exti.o(.revsh_text), (4 bytes).
    Removing my_stm32f10x_exti.o(.rrx_text), (6 bytes).
    Removing my_stm32f10x_exti.o(i.EXTI_ClearFlag), (12 bytes).
    Removing my_stm32f10x_exti.o(i.EXTI_DeInit), (36 bytes).
    Removing my_stm32f10x_exti.o(i.EXTI_GenerateSWInterrupt), (16 bytes).
    Removing my_stm32f10x_exti.o(i.EXTI_GetFlagStatus), (24 bytes).
    Removing my_stm32f10x_exti.o(i.EXTI_StructInit), (16 bytes).
    Removing my_stm32f10x_spi.o(.rev16_text), (4 bytes).
    Removing my_stm32f10x_spi.o(.revsh_text), (4 bytes).
    Removing my_stm32f10x_spi.o(.rrx_text), (6 bytes).
    Removing my_stm32f10x_spi.o(i.I2S_Cmd), (24 bytes).
    Removing my_stm32f10x_spi.o(i.I2S_Init), (232 bytes).
    Removing my_stm32f10x_spi.o(i.I2S_StructInit), (20 bytes).
    Removing my_stm32f10x_spi.o(i.SPI_BiDirectionalLineConfig), (28 bytes).
    Removing my_stm32f10x_spi.o(i.SPI_CalculateCRC), (24 bytes).
    Removing my_stm32f10x_spi.o(i.SPI_DataSizeConfig), (18 bytes).
    Removing my_stm32f10x_spi.o(i.SPI_GetCRC), (16 bytes).
    Removing my_stm32f10x_spi.o(i.SPI_GetCRCPolynomial), (6 bytes).
    Removing my_stm32f10x_spi.o(i.SPI_I2S_ClearFlag), (6 bytes).
    Removing my_stm32f10x_spi.o(i.SPI_I2S_ClearITPendingBit), (20 bytes).
    Removing my_stm32f10x_spi.o(i.SPI_I2S_DMACmd), (18 bytes).
    Removing my_stm32f10x_spi.o(i.SPI_I2S_DeInit), (88 bytes).
    Removing my_stm32f10x_spi.o(i.SPI_I2S_GetFlagStatus), (18 bytes).
    Removing my_stm32f10x_spi.o(i.SPI_I2S_GetITStatus), (52 bytes).
    Removing my_stm32f10x_spi.o(i.SPI_I2S_ITConfig), (32 bytes).
    Removing my_stm32f10x_spi.o(i.SPI_I2S_ReceiveData), (6 bytes).
    Removing my_stm32f10x_spi.o(i.SPI_I2S_SendData), (4 bytes).
    Removing my_stm32f10x_spi.o(i.SPI_NSSInternalSoftwareConfig), (30 bytes).
    Removing my_stm32f10x_spi.o(i.SPI_SSOutputCmd), (24 bytes).
    Removing my_stm32f10x_spi.o(i.SPI_StructInit), (24 bytes).
    Removing my_stm32f10x_spi.o(i.SPI_TransmitCRC), (10 bytes).
    Removing buzzle.o(.rev16_text), (4 bytes).
    Removing buzzle.o(.revsh_text), (4 bytes).
    Removing buzzle.o(.rrx_text), (6 bytes).
    Removing buzzle.o(i.Buzzle_OFF), (16 bytes).
    Removing buzzle.o(i.Buzzle_ON), (16 bytes).
    Removing led.o(.rev16_text), (4 bytes).
    Removing led.o(.revsh_text), (4 bytes).
    Removing led.o(.rrx_text), (6 bytes).
    Removing led.o(i.LED0_OFF), (16 bytes).
    Removing led.o(i.LED4_Turn), (36 bytes).
    Removing led.o(i.LED5_Turn), (36 bytes).
    Removing misc.o(.rev16_text), (4 bytes).
    Removing misc.o(.revsh_text), (4 bytes).
    Removing misc.o(.rrx_text), (6 bytes).
    Removing misc.o(i.NVIC_PriorityGroupConfig), (20 bytes).
    Removing misc.o(i.NVIC_SetVectorTable), (20 bytes).
    Removing misc.o(i.NVIC_SystemLPConfig), (32 bytes).
    Removing stm32f10x_bkp.o(.rev16_text), (4 bytes).
    Removing stm32f10x_bkp.o(.revsh_text), (4 bytes).
    Removing stm32f10x_bkp.o(.rrx_text), (6 bytes).
    Removing stm32f10x_bkp.o(i.BKP_ClearFlag), (20 bytes).
    Removing stm32f10x_bkp.o(i.BKP_ClearITPendingBit), (20 bytes).
    Removing stm32f10x_bkp.o(i.BKP_DeInit), (16 bytes).
    Removing stm32f10x_bkp.o(i.BKP_GetFlagStatus), (12 bytes).
    Removing stm32f10x_bkp.o(i.BKP_GetITStatus), (12 bytes).
    Removing stm32f10x_bkp.o(i.BKP_ITConfig), (12 bytes).
    Removing stm32f10x_bkp.o(i.BKP_RTCOutputConfig), (28 bytes).
    Removing stm32f10x_bkp.o(i.BKP_ReadBackupRegister), (28 bytes).
    Removing stm32f10x_bkp.o(i.BKP_SetRTCCalibrationValue), (28 bytes).
    Removing stm32f10x_bkp.o(i.BKP_TamperPinCmd), (12 bytes).
    Removing stm32f10x_bkp.o(i.BKP_TamperPinLevelConfig), (12 bytes).
    Removing stm32f10x_bkp.o(i.BKP_WriteBackupRegister), (28 bytes).
    Removing stm32f10x_dbgmcu.o(.rev16_text), (4 bytes).
    Removing stm32f10x_dbgmcu.o(.revsh_text), (4 bytes).
    Removing stm32f10x_dbgmcu.o(.rrx_text), (6 bytes).
    Removing stm32f10x_dbgmcu.o(i.DBGMCU_Config), (32 bytes).
    Removing stm32f10x_dbgmcu.o(i.DBGMCU_GetDEVID), (16 bytes).
    Removing stm32f10x_dbgmcu.o(i.DBGMCU_GetREVID), (12 bytes).
    Removing stm32f10x_dma.o(.rev16_text), (4 bytes).
    Removing stm32f10x_dma.o(.revsh_text), (4 bytes).
    Removing stm32f10x_dma.o(.rrx_text), (6 bytes).
    Removing stm32f10x_dma.o(i.DMA_ClearFlag), (28 bytes).
    Removing stm32f10x_dma.o(i.DMA_ClearITPendingBit), (28 bytes).
    Removing stm32f10x_dma.o(i.DMA_Cmd), (24 bytes).
    Removing stm32f10x_dma.o(i.DMA_DeInit), (332 bytes).
    Removing stm32f10x_dma.o(i.DMA_GetCurrDataCounter), (8 bytes).
    Removing stm32f10x_dma.o(i.DMA_GetFlagStatus), (44 bytes).
    Removing stm32f10x_dma.o(i.DMA_GetITStatus), (44 bytes).
    Removing stm32f10x_dma.o(i.DMA_ITConfig), (18 bytes).
    Removing stm32f10x_dma.o(i.DMA_Init), (60 bytes).
    Removing stm32f10x_dma.o(i.DMA_SetCurrDataCounter), (4 bytes).
    Removing stm32f10x_dma.o(i.DMA_StructInit), (26 bytes).
    Removing stm32f10x_flash.o(.rev16_text), (4 bytes).
    Removing stm32f10x_flash.o(.revsh_text), (4 bytes).
    Removing stm32f10x_flash.o(.rrx_text), (6 bytes).
    Removing stm32f10x_flash.o(i.FLASH_ClearFlag), (12 bytes).
    Removing stm32f10x_flash.o(i.FLASH_EnableWriteProtection), (196 bytes).
    Removing stm32f10x_flash.o(i.FLASH_EraseAllBank1Pages), (72 bytes).
    Removing stm32f10x_flash.o(i.FLASH_EraseAllPages), (72 bytes).
    Removing stm32f10x_flash.o(i.FLASH_EraseOptionBytes), (168 bytes).
    Removing stm32f10x_flash.o(i.FLASH_ErasePage), (76 bytes).
    Removing stm32f10x_flash.o(i.FLASH_GetBank1Status), (52 bytes).
    Removing stm32f10x_flash.o(i.FLASH_GetFlagStatus), (48 bytes).
    Removing stm32f10x_flash.o(i.FLASH_GetPrefetchBufferStatus), (24 bytes).
    Removing stm32f10x_flash.o(i.FLASH_GetReadOutProtectionStatus), (24 bytes).
    Removing stm32f10x_flash.o(i.FLASH_GetStatus), (52 bytes).
    Removing stm32f10x_flash.o(i.FLASH_GetUserOptionByte), (12 bytes).
    Removing stm32f10x_flash.o(i.FLASH_GetWriteProtectionOptionByte), (12 bytes).
    Removing stm32f10x_flash.o(i.FLASH_HalfCycleAccessCmd), (28 bytes).
    Removing stm32f10x_flash.o(i.FLASH_ITConfig), (32 bytes).
    Removing stm32f10x_flash.o(i.FLASH_Lock), (20 bytes).
    Removing stm32f10x_flash.o(i.FLASH_LockBank1), (20 bytes).
    Removing stm32f10x_flash.o(i.FLASH_PrefetchBufferCmd), (28 bytes).
    Removing stm32f10x_flash.o(i.FLASH_ProgramHalfWord), (64 bytes).
    Removing stm32f10x_flash.o(i.FLASH_ProgramOptionByteData), (84 bytes).
    Removing stm32f10x_flash.o(i.FLASH_ProgramWord), (108 bytes).
    Removing stm32f10x_flash.o(i.FLASH_ReadOutProtection), (172 bytes).
    Removing stm32f10x_flash.o(i.FLASH_SetLatency), (24 bytes).
    Removing stm32f10x_flash.o(i.FLASH_Unlock), (24 bytes).
    Removing stm32f10x_flash.o(i.FLASH_UnlockBank1), (24 bytes).
    Removing stm32f10x_flash.o(i.FLASH_UserOptionByteConfig), (104 bytes).
    Removing stm32f10x_flash.o(i.FLASH_WaitForLastBank1Operation), (38 bytes).
    Removing stm32f10x_flash.o(i.FLASH_WaitForLastOperation), (38 bytes).
    Removing stm32f10x_fsmc.o(.rev16_text), (4 bytes).
    Removing stm32f10x_fsmc.o(.revsh_text), (4 bytes).
    Removing stm32f10x_fsmc.o(.rrx_text), (6 bytes).
    Removing stm32f10x_fsmc.o(i.FSMC_ClearFlag), (64 bytes).
    Removing stm32f10x_fsmc.o(i.FSMC_ClearITPendingBit), (72 bytes).
    Removing stm32f10x_fsmc.o(i.FSMC_GetECC), (28 bytes).
    Removing stm32f10x_fsmc.o(i.FSMC_GetFlagStatus), (56 bytes).
    Removing stm32f10x_fsmc.o(i.FSMC_GetITStatus), (68 bytes).
    Removing stm32f10x_fsmc.o(i.FSMC_ITConfig), (128 bytes).
    Removing stm32f10x_fsmc.o(i.FSMC_NANDCmd), (92 bytes).
    Removing stm32f10x_fsmc.o(i.FSMC_NANDDeInit), (68 bytes).
    Removing stm32f10x_fsmc.o(i.FSMC_NANDECCCmd), (92 bytes).
    Removing stm32f10x_fsmc.o(i.FSMC_NANDInit), (136 bytes).
    Removing stm32f10x_fsmc.o(i.FSMC_NANDStructInit), (54 bytes).
    Removing stm32f10x_fsmc.o(i.FSMC_NORSRAMDeInit), (54 bytes).
    Removing stm32f10x_fsmc.o(i.FSMC_NORSRAMStructInit), (114 bytes).
    Removing stm32f10x_fsmc.o(i.FSMC_PCCARDCmd), (48 bytes).
    Removing stm32f10x_fsmc.o(i.FSMC_PCCARDDeInit), (40 bytes).
    Removing stm32f10x_fsmc.o(i.FSMC_PCCARDInit), (132 bytes).
    Removing stm32f10x_fsmc.o(i.FSMC_PCCARDStructInit), (60 bytes).
    Removing stm32f10x_gpio.o(.rev16_text), (4 bytes).
    Removing stm32f10x_gpio.o(.revsh_text), (4 bytes).
    Removing stm32f10x_gpio.o(.rrx_text), (6 bytes).
    Removing stm32f10x_gpio.o(i.GPIO_AFIODeInit), (20 bytes).
    Removing stm32f10x_gpio.o(i.GPIO_DeInit), (200 bytes).
    Removing stm32f10x_gpio.o(i.GPIO_ETH_MediaInterfaceConfig), (12 bytes).
    Removing stm32f10x_gpio.o(i.GPIO_EventOutputCmd), (12 bytes).
    Removing stm32f10x_gpio.o(i.GPIO_EventOutputConfig), (32 bytes).
    Removing stm32f10x_gpio.o(i.GPIO_PinLockConfig), (18 bytes).
    Removing stm32f10x_gpio.o(i.GPIO_PinRemapConfig), (144 bytes).
    Removing stm32f10x_gpio.o(i.GPIO_ReadInputData), (8 bytes).
    Removing stm32f10x_gpio.o(i.GPIO_ReadInputDataBit), (18 bytes).
    Removing stm32f10x_gpio.o(i.GPIO_ReadOutputData), (8 bytes).
    Removing stm32f10x_gpio.o(i.GPIO_ReadOutputDataBit), (18 bytes).
    Removing stm32f10x_gpio.o(i.GPIO_StructInit), (16 bytes).
    Removing stm32f10x_gpio.o(i.GPIO_Write), (4 bytes).
    Removing stm32f10x_gpio.o(i.GPIO_WriteBit), (10 bytes).
    Removing stm32f10x_pwr.o(.rev16_text), (4 bytes).
    Removing stm32f10x_pwr.o(.revsh_text), (4 bytes).
    Removing stm32f10x_pwr.o(.rrx_text), (6 bytes).
    Removing stm32f10x_pwr.o(i.PWR_BackupAccessCmd), (12 bytes).
    Removing stm32f10x_pwr.o(i.PWR_ClearFlag), (20 bytes).
    Removing stm32f10x_pwr.o(i.PWR_DeInit), (22 bytes).
    Removing stm32f10x_pwr.o(i.PWR_EnterSTANDBYMode), (40 bytes).
    Removing stm32f10x_pwr.o(i.PWR_EnterSTOPMode), (64 bytes).
    Removing stm32f10x_pwr.o(i.PWR_GetFlagStatus), (24 bytes).
    Removing stm32f10x_pwr.o(i.PWR_PVDCmd), (12 bytes).
    Removing stm32f10x_pwr.o(i.PWR_PVDLevelConfig), (24 bytes).
    Removing stm32f10x_pwr.o(i.PWR_WakeUpPinCmd), (12 bytes).
    Removing stm32f10x_rcc.o(.rev16_text), (4 bytes).
    Removing stm32f10x_rcc.o(.revsh_text), (4 bytes).
    Removing stm32f10x_rcc.o(.rrx_text), (6 bytes).
    Removing stm32f10x_rcc.o(i.RCC_ADCCLKConfig), (24 bytes).
    Removing stm32f10x_rcc.o(i.RCC_APB1PeriphResetCmd), (32 bytes).
    Removing stm32f10x_rcc.o(i.RCC_APB2PeriphResetCmd), (32 bytes).
    Removing stm32f10x_rcc.o(i.RCC_AdjustHSICalibrationValue), (24 bytes).
    Removing stm32f10x_rcc.o(i.RCC_BackupResetCmd), (12 bytes).
    Removing stm32f10x_rcc.o(i.RCC_ClearFlag), (20 bytes).
    Removing stm32f10x_rcc.o(i.RCC_ClearITPendingBit), (12 bytes).
    Removing stm32f10x_rcc.o(i.RCC_ClockSecuritySystemCmd), (12 bytes).
    Removing stm32f10x_rcc.o(i.RCC_DeInit), (76 bytes).
    Removing stm32f10x_rcc.o(i.RCC_GetFlagStatus), (60 bytes).
    Removing stm32f10x_rcc.o(i.RCC_GetITStatus), (24 bytes).
    Removing stm32f10x_rcc.o(i.RCC_GetSYSCLKSource), (16 bytes).
    Removing stm32f10x_rcc.o(i.RCC_HCLKConfig), (24 bytes).
    Removing stm32f10x_rcc.o(i.RCC_HSEConfig), (76 bytes).
    Removing stm32f10x_rcc.o(i.RCC_HSICmd), (12 bytes).
    Removing stm32f10x_rcc.o(i.RCC_ITConfig), (32 bytes).
    Removing stm32f10x_rcc.o(i.RCC_LSEConfig), (52 bytes).
    Removing stm32f10x_rcc.o(i.RCC_LSICmd), (12 bytes).
    Removing stm32f10x_rcc.o(i.RCC_MCOConfig), (12 bytes).
    Removing stm32f10x_rcc.o(i.RCC_PCLK1Config), (24 bytes).
    Removing stm32f10x_rcc.o(i.RCC_PCLK2Config), (24 bytes).
    Removing stm32f10x_rcc.o(i.RCC_PLLCmd), (12 bytes).
    Removing stm32f10x_rcc.o(i.RCC_PLLConfig), (28 bytes).
    Removing stm32f10x_rcc.o(i.RCC_RTCCLKCmd), (12 bytes).
    Removing stm32f10x_rcc.o(i.RCC_RTCCLKConfig), (16 bytes).
    Removing stm32f10x_rcc.o(i.RCC_SYSCLKConfig), (24 bytes).
    Removing stm32f10x_rcc.o(i.RCC_USBCLKConfig), (12 bytes).
    Removing stm32f10x_rcc.o(i.RCC_WaitForHSEStartUp), (56 bytes).
    Removing stm32f10x_rtc.o(.rev16_text), (4 bytes).
    Removing stm32f10x_rtc.o(.revsh_text), (4 bytes).
    Removing stm32f10x_rtc.o(.rrx_text), (6 bytes).
    Removing stm32f10x_rtc.o(i.RTC_ClearFlag), (16 bytes).
    Removing stm32f10x_rtc.o(i.RTC_ClearITPendingBit), (16 bytes).
    Removing stm32f10x_rtc.o(i.RTC_EnterConfigMode), (20 bytes).
    Removing stm32f10x_rtc.o(i.RTC_ExitConfigMode), (20 bytes).
    Removing stm32f10x_rtc.o(i.RTC_GetCounter), (44 bytes).
    Removing stm32f10x_rtc.o(i.RTC_GetDivider), (24 bytes).
    Removing stm32f10x_rtc.o(i.RTC_GetFlagStatus), (24 bytes).
    Removing stm32f10x_rtc.o(i.RTC_GetITStatus), (36 bytes).
    Removing stm32f10x_rtc.o(i.RTC_ITConfig), (32 bytes).
    Removing stm32f10x_rtc.o(i.RTC_SetAlarm), (28 bytes).
    Removing stm32f10x_rtc.o(i.RTC_SetCounter), (28 bytes).
    Removing stm32f10x_rtc.o(i.RTC_SetPrescaler), (32 bytes).
    Removing stm32f10x_rtc.o(i.RTC_WaitForLastTask), (20 bytes).
    Removing stm32f10x_rtc.o(i.RTC_WaitForSynchro), (36 bytes).
    Removing stm32f10x_sdio.o(.rev16_text), (4 bytes).
    Removing stm32f10x_sdio.o(.revsh_text), (4 bytes).
    Removing stm32f10x_sdio.o(.rrx_text), (6 bytes).
    Removing stm32f10x_sdio.o(i.SDIO_CEATAITCmd), (16 bytes).
    Removing stm32f10x_sdio.o(i.SDIO_ClearFlag), (12 bytes).
    Removing stm32f10x_sdio.o(i.SDIO_ClearITPendingBit), (12 bytes).
    Removing stm32f10x_sdio.o(i.SDIO_ClockCmd), (12 bytes).
    Removing stm32f10x_sdio.o(i.SDIO_CmdStructInit), (14 bytes).
    Removing stm32f10x_sdio.o(i.SDIO_CommandCompletionCmd), (12 bytes).
    Removing stm32f10x_sdio.o(i.SDIO_DMACmd), (12 bytes).
    Removing stm32f10x_sdio.o(i.SDIO_DataConfig), (48 bytes).
    Removing stm32f10x_sdio.o(i.SDIO_DataStructInit), (20 bytes).
    Removing stm32f10x_sdio.o(i.SDIO_DeInit), (36 bytes).
    Removing stm32f10x_sdio.o(i.SDIO_GetCommandResponse), (12 bytes).
    Removing stm32f10x_sdio.o(i.SDIO_GetDataCounter), (12 bytes).
    Removing stm32f10x_sdio.o(i.SDIO_GetFIFOCount), (12 bytes).
    Removing stm32f10x_sdio.o(i.SDIO_GetFlagStatus), (24 bytes).
    Removing stm32f10x_sdio.o(i.SDIO_GetITStatus), (24 bytes).
    Removing stm32f10x_sdio.o(i.SDIO_GetPowerState), (16 bytes).
    Removing stm32f10x_sdio.o(i.SDIO_GetResponse), (24 bytes).
    Removing stm32f10x_sdio.o(i.SDIO_ITConfig), (32 bytes).
    Removing stm32f10x_sdio.o(i.SDIO_Init), (48 bytes).
    Removing stm32f10x_sdio.o(i.SDIO_ReadData), (12 bytes).
    Removing stm32f10x_sdio.o(i.SDIO_SendCEATACmd), (12 bytes).
    Removing stm32f10x_sdio.o(i.SDIO_SendCommand), (44 bytes).
    Removing stm32f10x_sdio.o(i.SDIO_SendSDIOSuspendCmd), (12 bytes).
    Removing stm32f10x_sdio.o(i.SDIO_SetPowerState), (12 bytes).
    Removing stm32f10x_sdio.o(i.SDIO_SetSDIOOperation), (12 bytes).
    Removing stm32f10x_sdio.o(i.SDIO_SetSDIOReadWaitMode), (12 bytes).
    Removing stm32f10x_sdio.o(i.SDIO_StartSDIOReadWait), (12 bytes).
    Removing stm32f10x_sdio.o(i.SDIO_StopSDIOReadWait), (12 bytes).
    Removing stm32f10x_sdio.o(i.SDIO_StructInit), (16 bytes).
    Removing stm32f10x_sdio.o(i.SDIO_WriteData), (12 bytes).
    Removing stm32f10x_tim.o(.rev16_text), (4 bytes).
    Removing stm32f10x_tim.o(.revsh_text), (4 bytes).
    Removing stm32f10x_tim.o(.rrx_text), (6 bytes).
    Removing stm32f10x_tim.o(i.TI1_Config), (128 bytes).
    Removing stm32f10x_tim.o(i.TI2_Config), (152 bytes).
    Removing stm32f10x_tim.o(i.TI3_Config), (144 bytes).
    Removing stm32f10x_tim.o(i.TI4_Config), (152 bytes).
    Removing stm32f10x_tim.o(i.TIM_ARRPreloadConfig), (24 bytes).
    Removing stm32f10x_tim.o(i.TIM_BDTRConfig), (32 bytes).
    Removing stm32f10x_tim.o(i.TIM_BDTRStructInit), (18 bytes).
    Removing stm32f10x_tim.o(i.TIM_CCPreloadControl), (24 bytes).
    Removing stm32f10x_tim.o(i.TIM_CCxCmd), (30 bytes).
    Removing stm32f10x_tim.o(i.TIM_CCxNCmd), (30 bytes).
    Removing stm32f10x_tim.o(i.TIM_ClearFlag), (6 bytes).
    Removing stm32f10x_tim.o(i.TIM_ClearOC1Ref), (18 bytes).
    Removing stm32f10x_tim.o(i.TIM_ClearOC2Ref), (24 bytes).
    Removing stm32f10x_tim.o(i.TIM_ClearOC3Ref), (18 bytes).
    Removing stm32f10x_tim.o(i.TIM_ClearOC4Ref), (24 bytes).
    Removing stm32f10x_tim.o(i.TIM_Cmd), (24 bytes).
    Removing stm32f10x_tim.o(i.TIM_CounterModeConfig), (18 bytes).
    Removing stm32f10x_tim.o(i.TIM_CtrlPWMOutputs), (30 bytes).
    Removing stm32f10x_tim.o(i.TIM_DMACmd), (18 bytes).
    Removing stm32f10x_tim.o(i.TIM_DMAConfig), (10 bytes).
    Removing stm32f10x_tim.o(i.TIM_DeInit), (488 bytes).
    Removing stm32f10x_tim.o(i.TIM_ETRClockMode1Config), (54 bytes).
    Removing stm32f10x_tim.o(i.TIM_ETRClockMode2Config), (32 bytes).
    Removing stm32f10x_tim.o(i.TIM_ETRConfig), (28 bytes).
    Removing stm32f10x_tim.o(i.TIM_EncoderInterfaceConfig), (66 bytes).
    Removing stm32f10x_tim.o(i.TIM_ForcedOC1Config), (18 bytes).
    Removing stm32f10x_tim.o(i.TIM_ForcedOC2Config), (26 bytes).
    Removing stm32f10x_tim.o(i.TIM_ForcedOC3Config), (18 bytes).
    Removing stm32f10x_tim.o(i.TIM_ForcedOC4Config), (26 bytes).
    Removing stm32f10x_tim.o(i.TIM_GenerateEvent), (4 bytes).
    Removing stm32f10x_tim.o(i.TIM_GetCapture1), (6 bytes).
    Removing stm32f10x_tim.o(i.TIM_GetCapture2), (6 bytes).
    Removing stm32f10x_tim.o(i.TIM_GetCapture3), (6 bytes).
    Removing stm32f10x_tim.o(i.TIM_GetCapture4), (8 bytes).
    Removing stm32f10x_tim.o(i.TIM_GetCounter), (6 bytes).
    Removing stm32f10x_tim.o(i.TIM_GetFlagStatus), (18 bytes).
    Removing stm32f10x_tim.o(i.TIM_GetPrescaler), (6 bytes).
    Removing stm32f10x_tim.o(i.TIM_ICInit), (172 bytes).
    Removing stm32f10x_tim.o(i.TIM_ICStructInit), (18 bytes).
    Removing stm32f10x_tim.o(i.TIM_ITConfig), (18 bytes).
    Removing stm32f10x_tim.o(i.TIM_ITRxExternalClockConfig), (24 bytes).
    Removing stm32f10x_tim.o(i.TIM_InternalClockConfig), (12 bytes).
    Removing stm32f10x_tim.o(i.TIM_OC1FastConfig), (18 bytes).
    Removing stm32f10x_tim.o(i.TIM_OC1Init), (152 bytes).
    Removing stm32f10x_tim.o(i.TIM_OC1NPolarityConfig), (18 bytes).
    Removing stm32f10x_tim.o(i.TIM_OC1PolarityConfig), (18 bytes).
    Removing stm32f10x_tim.o(i.TIM_OC1PreloadConfig), (18 bytes).
    Removing stm32f10x_tim.o(i.TIM_OC2FastConfig), (26 bytes).
    Removing stm32f10x_tim.o(i.TIM_OC2Init), (164 bytes).
    Removing stm32f10x_tim.o(i.TIM_OC2NPolarityConfig), (26 bytes).
    Removing stm32f10x_tim.o(i.TIM_OC2PolarityConfig), (26 bytes).
    Removing stm32f10x_tim.o(i.TIM_OC2PreloadConfig), (26 bytes).
    Removing stm32f10x_tim.o(i.TIM_OC3FastConfig), (18 bytes).
    Removing stm32f10x_tim.o(i.TIM_OC3Init), (160 bytes).
    Removing stm32f10x_tim.o(i.TIM_OC3NPolarityConfig), (26 bytes).
    Removing stm32f10x_tim.o(i.TIM_OC3PolarityConfig), (26 bytes).
    Removing stm32f10x_tim.o(i.TIM_OC3PreloadConfig), (18 bytes).
    Removing stm32f10x_tim.o(i.TIM_OC4FastConfig), (26 bytes).
    Removing stm32f10x_tim.o(i.TIM_OC4Init), (124 bytes).
    Removing stm32f10x_tim.o(i.TIM_OC4PolarityConfig), (26 bytes).
    Removing stm32f10x_tim.o(i.TIM_OC4PreloadConfig), (26 bytes).
    Removing stm32f10x_tim.o(i.TIM_OCStructInit), (20 bytes).
    Removing stm32f10x_tim.o(i.TIM_PWMIConfig), (124 bytes).
    Removing stm32f10x_tim.o(i.TIM_PrescalerConfig), (6 bytes).
    Removing stm32f10x_tim.o(i.TIM_SelectCCDMA), (24 bytes).
    Removing stm32f10x_tim.o(i.TIM_SelectCOM), (24 bytes).
    Removing stm32f10x_tim.o(i.TIM_SelectHallSensor), (24 bytes).
    Removing stm32f10x_tim.o(i.TIM_SelectInputTrigger), (18 bytes).
    Removing stm32f10x_tim.o(i.TIM_SelectMasterSlaveMode), (18 bytes).
    Removing stm32f10x_tim.o(i.TIM_SelectOCxM), (82 bytes).
    Removing stm32f10x_tim.o(i.TIM_SelectOnePulseMode), (18 bytes).
    Removing stm32f10x_tim.o(i.TIM_SelectOutputTrigger), (18 bytes).
    Removing stm32f10x_tim.o(i.TIM_SelectSlaveMode), (18 bytes).
    Removing stm32f10x_tim.o(i.TIM_SetAutoreload), (4 bytes).
    Removing stm32f10x_tim.o(i.TIM_SetClockDivision), (18 bytes).
    Removing stm32f10x_tim.o(i.TIM_SetCompare1), (4 bytes).
    Removing stm32f10x_tim.o(i.TIM_SetCompare2), (4 bytes).
    Removing stm32f10x_tim.o(i.TIM_SetCompare3), (4 bytes).
    Removing stm32f10x_tim.o(i.TIM_SetCompare4), (6 bytes).
    Removing stm32f10x_tim.o(i.TIM_SetCounter), (4 bytes).
    Removing stm32f10x_tim.o(i.TIM_SetIC1Prescaler), (18 bytes).
    Removing stm32f10x_tim.o(i.TIM_SetIC2Prescaler), (26 bytes).
    Removing stm32f10x_tim.o(i.TIM_SetIC3Prescaler), (18 bytes).
    Removing stm32f10x_tim.o(i.TIM_SetIC4Prescaler), (26 bytes).
    Removing stm32f10x_tim.o(i.TIM_TIxExternalClockConfig), (62 bytes).
    Removing stm32f10x_tim.o(i.TIM_TimeBaseInit), (164 bytes).
    Removing stm32f10x_tim.o(i.TIM_TimeBaseStructInit), (18 bytes).
    Removing stm32f10x_tim.o(i.TIM_UpdateDisableConfig), (24 bytes).
    Removing stm32f10x_tim.o(i.TIM_UpdateRequestConfig), (24 bytes).
    Removing stm32f10x_usart.o(.rev16_text), (4 bytes).
    Removing stm32f10x_usart.o(.revsh_text), (4 bytes).
    Removing stm32f10x_usart.o(.rrx_text), (6 bytes).
    Removing stm32f10x_usart.o(i.USART_ClearFlag), (18 bytes).
    Removing stm32f10x_usart.o(i.USART_ClearITPendingBit), (30 bytes).
    Removing stm32f10x_usart.o(i.USART_ClockInit), (34 bytes).
    Removing stm32f10x_usart.o(i.USART_ClockStructInit), (12 bytes).
    Removing stm32f10x_usart.o(i.USART_DMACmd), (18 bytes).
    Removing stm32f10x_usart.o(i.USART_DeInit), (156 bytes).
    Removing stm32f10x_usart.o(i.USART_GetITStatus), (84 bytes).
    Removing stm32f10x_usart.o(i.USART_HalfDuplexCmd), (24 bytes).
    Removing stm32f10x_usart.o(i.USART_ITConfig), (74 bytes).
    Removing stm32f10x_usart.o(i.USART_IrDACmd), (24 bytes).
    Removing stm32f10x_usart.o(i.USART_IrDAConfig), (18 bytes).
    Removing stm32f10x_usart.o(i.USART_LINBreakDetectLengthConfig), (18 bytes).
    Removing stm32f10x_usart.o(i.USART_LINCmd), (24 bytes).
    Removing stm32f10x_usart.o(i.USART_OneBitMethodCmd), (24 bytes).
    Removing stm32f10x_usart.o(i.USART_OverSampling8Cmd), (22 bytes).
    Removing stm32f10x_usart.o(i.USART_ReceiveData), (10 bytes).
    Removing stm32f10x_usart.o(i.USART_ReceiverWakeUpCmd), (24 bytes).
    Removing stm32f10x_usart.o(i.USART_SendBreak), (10 bytes).
    Removing stm32f10x_usart.o(i.USART_SetAddress), (18 bytes).
    Removing stm32f10x_usart.o(i.USART_SetGuardTime), (16 bytes).
    Removing stm32f10x_usart.o(i.USART_SetPrescaler), (16 bytes).
    Removing stm32f10x_usart.o(i.USART_SmartCardCmd), (24 bytes).
    Removing stm32f10x_usart.o(i.USART_SmartCardNACKCmd), (24 bytes).
    Removing stm32f10x_usart.o(i.USART_StructInit), (24 bytes).
    Removing stm32f10x_usart.o(i.USART_WakeUpConfig), (18 bytes).
    Removing dma_stm32f10x.o(.rev16_text), (4 bytes).
    Removing dma_stm32f10x.o(.revsh_text), (4 bytes).
    Removing dma_stm32f10x.o(.rrx_text), (6 bytes).
    Removing dma_stm32f10x.o(i.DMA2_Channel4_IRQHandler), (32 bytes).
    Removing dma_stm32f10x.o(i.DMA_ChannelInitialize), (464 bytes).
    Removing dma_stm32f10x.o(i.DMA_ChannelUninitialize), (356 bytes).
    Removing dma_stm32f10x.o(i.__NVIC_ClearPendingIRQ), (28 bytes).
    Removing dma_stm32f10x.o(i.__NVIC_DisableIRQ), (36 bytes).
    Removing dma_stm32f10x.o(i.__NVIC_EnableIRQ), (34 bytes).
    Removing dma_stm32f10x.o(.data), (2 bytes).
    Removing gpio_stm32f10x.o(.rev16_text), (4 bytes).
    Removing gpio_stm32f10x.o(.revsh_text), (4 bytes).
    Removing gpio_stm32f10x.o(.rrx_text), (6 bytes).
    Removing gpio_stm32f10x.o(i.GPIO_AFConfigure), (156 bytes).
    Removing gpio_stm32f10x.o(i.GPIO_GetPortClockState), (152 bytes).
    Removing gpio_stm32f10x.o(i.GPIO_PinConfigure), (120 bytes).
    Removing gpio_stm32f10x.o(i.GPIO_PortClock), (316 bytes).
    Removing startup_stm32f10x_hd.o(HEAP), (512 bytes).
    Removing system_stm32f10x.o(.rev16_text), (4 bytes).
    Removing system_stm32f10x.o(.revsh_text), (4 bytes).
    Removing system_stm32f10x.o(.rrx_text), (6 bytes).
    Removing system_stm32f10x.o(i.SystemCoreClockUpdate), (164 bytes).
    Removing system_stm32f10x.o(.data), (20 bytes).
    Removing dadd.o(.text), (334 bytes).
    Removing dmul.o(.text), (228 bytes).
    Removing ddiv.o(.text), (222 bytes).
    Removing dfixul.o(.text), (48 bytes).
    Removing cdrcmple.o(.text), (48 bytes).
    Removing depilogue.o(.text), (186 bytes).

528 unused section(s) (total 22339 bytes) removed from the image.

==============================================================================

Image Symbol Table

    Local Symbols

    Symbol Name                              Value     Ov Type        Size  Object(Section)

    ../clib/microlib/ctype/ctype.c           0x00000000   Number         0  isupper_o.o ABSOLUTE
    ../clib/microlib/ctype/ctype.c           0x00000000   Number         0  isspace_o.o ABSOLUTE
    ../clib/microlib/ctype/ctype.c           0x00000000   Number         0  ispunct_o.o ABSOLUTE
    ../clib/microlib/ctype/ctype.c           0x00000000   Number         0  isprint_o.o ABSOLUTE
    ../clib/microlib/ctype/ctype.c           0x00000000   Number         0  islower_o.o ABSOLUTE
    ../clib/microlib/ctype/ctype.c           0x00000000   Number         0  isgraph_o.o ABSOLUTE
    ../clib/microlib/ctype/ctype.c           0x00000000   Number         0  isxdigit_o.o ABSOLUTE
    ../clib/microlib/ctype/ctype.c           0x00000000   Number         0  isdigit_o.o ABSOLUTE
    ../clib/microlib/ctype/ctype.c           0x00000000   Number         0  iscntrl_o.o ABSOLUTE
    ../clib/microlib/ctype/ctype.c           0x00000000   Number         0  ctype_o.o ABSOLUTE
    ../clib/microlib/ctype/ctype.c           0x00000000   Number         0  isblank_o.o ABSOLUTE
    ../clib/microlib/ctype/ctype.c           0x00000000   Number         0  isalpha_o.o ABSOLUTE
    ../clib/microlib/ctype/ctype.c           0x00000000   Number         0  isalnum_o.o ABSOLUTE
    ../clib/microlib/division.c              0x00000000   Number         0  uldiv.o ABSOLUTE
    ../clib/microlib/division.c              0x00000000   Number         0  ldiv.o ABSOLUTE
    ../clib/microlib/division.c              0x00000000   Number         0  uidiv.o ABSOLUTE
    ../clib/microlib/errno.c                 0x00000000   Number         0  errno.o ABSOLUTE
    ../clib/microlib/init/entry.s            0x00000000   Number         0  entry8a.o ABSOLUTE
    ../clib/microlib/init/entry.s            0x00000000   Number         0  entry.o ABSOLUTE
    ../clib/microlib/init/entry.s            0x00000000   Number         0  entry8b.o ABSOLUTE
    ../clib/microlib/init/entry.s            0x00000000   Number         0  entry10a.o ABSOLUTE
    ../clib/microlib/init/entry.s            0x00000000   Number         0  entry7a.o ABSOLUTE
    ../clib/microlib/init/entry.s            0x00000000   Number         0  entry9b.o ABSOLUTE
    ../clib/microlib/init/entry.s            0x00000000   Number         0  entry12b.o ABSOLUTE
    ../clib/microlib/init/entry.s            0x00000000   Number         0  entry2.o ABSOLUTE
    ../clib/microlib/init/entry.s            0x00000000   Number         0  entry12a.o ABSOLUTE
    ../clib/microlib/init/entry.s            0x00000000   Number         0  entry9a.o ABSOLUTE
    ../clib/microlib/init/entry.s            0x00000000   Number         0  entry5.o ABSOLUTE
    ../clib/microlib/init/entry.s            0x00000000   Number         0  entry11b.o ABSOLUTE
    ../clib/microlib/init/entry.s            0x00000000   Number         0  entry7b.o ABSOLUTE
    ../clib/microlib/init/entry.s            0x00000000   Number         0  entry11a.o ABSOLUTE
    ../clib/microlib/init/entry.s            0x00000000   Number         0  entry10b.o ABSOLUTE
    ../clib/microlib/longlong.c              0x00000000   Number         0  llshl.o ABSOLUTE
    ../clib/microlib/longlong.c              0x00000000   Number         0  llsshr.o ABSOLUTE
    ../clib/microlib/longlong.c              0x00000000   Number         0  llushr.o ABSOLUTE
    ../clib/microlib/malloc/malloc.c         0x00000000   Number         0  mallocr.o ABSOLUTE
    ../clib/microlib/malloc/malloc.c         0x00000000   Number         0  malloc.o ABSOLUTE
    ../clib/microlib/malloc/malloc.c         0x00000000   Number         0  mallocra.o ABSOLUTE
    ../clib/microlib/malloc/malloc.c         0x00000000   Number         0  malloca.o ABSOLUTE
    ../clib/microlib/malloc/mvars.c          0x00000000   Number         0  mvars.o ABSOLUTE
    ../clib/microlib/printf/printf.c         0x00000000   Number         0  printfb.o ABSOLUTE
    ../clib/microlib/printf/printf.c         0x00000000   Number         0  printfa.o ABSOLUTE
    ../clib/microlib/printf/printf.c         0x00000000   Number         0  printf8.o ABSOLUTE
    ../clib/microlib/printf/printf.c         0x00000000   Number         0  printf7.o ABSOLUTE
    ../clib/microlib/printf/printf.c         0x00000000   Number         0  printf5.o ABSOLUTE
    ../clib/microlib/printf/printf.c         0x00000000   Number         0  printf6.o ABSOLUTE
    ../clib/microlib/printf/printf.c         0x00000000   Number         0  printf4.o ABSOLUTE
    ../clib/microlib/printf/printf.c         0x00000000   Number         0  printf3.o ABSOLUTE
    ../clib/microlib/printf/printf.c         0x00000000   Number         0  printf2.o ABSOLUTE
    ../clib/microlib/printf/printf.c         0x00000000   Number         0  printf1.o ABSOLUTE
    ../clib/microlib/printf/printf.c         0x00000000   Number         0  printf0.o ABSOLUTE
    ../clib/microlib/printf/stubs.s          0x00000000   Number         0  stubs.o ABSOLUTE
    ../clib/microlib/stdio/fclose.c          0x00000000   Number         0  fclose.o ABSOLUTE
    ../clib/microlib/stdio/fopen.c           0x00000000   Number         0  fopen.o ABSOLUTE
    ../clib/microlib/stdio/fwrite.c          0x00000000   Number         0  fwrite_e.o ABSOLUTE
    ../clib/microlib/stdio/fwrite.c          0x00000000   Number         0  fwrite.o ABSOLUTE
    ../clib/microlib/stdio/streams.c         0x00000000   Number         0  stderr.o ABSOLUTE
    ../clib/microlib/stdio/streams.c         0x00000000   Number         0  stdout.o ABSOLUTE
    ../clib/microlib/stdlib/qsort.c          0x00000000   Number         0  qsort.o ABSOLUTE
    ../clib/microlib/string/memchr.c         0x00000000   Number         0  memchr.o ABSOLUTE
    ../clib/microlib/string/memcmp.c         0x00000000   Number         0  memcmp.o ABSOLUTE
    ../clib/microlib/string/memcpy.c         0x00000000   Number         0  memcpyb.o ABSOLUTE
    ../clib/microlib/string/memcpy.c         0x00000000   Number         0  memcpya.o ABSOLUTE
    ../clib/microlib/string/memcpy.c         0x00000000   Number         0  memmovea.o ABSOLUTE
    ../clib/microlib/string/memcpy.c         0x00000000   Number         0  memmoveb.o ABSOLUTE
    ../clib/microlib/string/strchr.c         0x00000000   Number         0  strchr.o ABSOLUTE
    ../clib/microlib/string/strcmp.c         0x00000000   Number         0  strcmp.o ABSOLUTE
    ../clib/microlib/string/strcpy.c         0x00000000   Number         0  strcpy.o ABSOLUTE
    ../clib/microlib/string/strerror.c       0x00000000   Number         0  strerror.o ABSOLUTE
    ../clib/microlib/string/strlen.c         0x00000000   Number         0  strlen.o ABSOLUTE
    ../clib/microlib/string/strncmp.c        0x00000000   Number         0  strncmp.o ABSOLUTE
    ../clib/microlib/string/strncpy.c        0x00000000   Number         0  strncpy.o ABSOLUTE
    ../clib/microlib/string/strstr.c         0x00000000   Number         0  strstr.o ABSOLUTE
    ../clib/microlib/stubs.s                 0x00000000   Number         0  iusefp.o ABSOLUTE
    ../clib/scanf.c                          0x00000000   Number         0  strtol.o ABSOLUTE
    ../clib/scanf.c                          0x00000000   Number         0  _chval.o ABSOLUTE
    ../clib/scanf.c                          0x00000000   Number         0  _strtoul.o ABSOLUTE
    ../fplib/microlib/fpadd.c                0x00000000   Number         0  dadd.o ABSOLUTE
    ../fplib/microlib/fpdiv.c                0x00000000   Number         0  ddiv.o ABSOLUTE
    ../fplib/microlib/fpepilogue.c           0x00000000   Number         0  depilogue.o ABSOLUTE
    ../fplib/microlib/fpfix.c                0x00000000   Number         0  dfixul.o ABSOLUTE
    ../fplib/microlib/fpmul.c                0x00000000   Number         0  dmul.o ABSOLUTE
    D:\Keil Files\Keil\STM32F1xx_DFP\2.4.1\Device\StdPeriph_Driver\src\misc.c 0x00000000   Number         0  misc.o ABSOLUTE
    D:\Keil Files\Keil\STM32F1xx_DFP\2.4.1\Device\StdPeriph_Driver\src\stm32f10x_bkp.c 0x00000000   Number         0  stm32f10x_bkp.o ABSOLUTE
    D:\Keil Files\Keil\STM32F1xx_DFP\2.4.1\Device\StdPeriph_Driver\src\stm32f10x_dbgmcu.c 0x00000000   Number         0  stm32f10x_dbgmcu.o ABSOLUTE
    D:\Keil Files\Keil\STM32F1xx_DFP\2.4.1\Device\StdPeriph_Driver\src\stm32f10x_dma.c 0x00000000   Number         0  stm32f10x_dma.o ABSOLUTE
    D:\Keil Files\Keil\STM32F1xx_DFP\2.4.1\Device\StdPeriph_Driver\src\stm32f10x_flash.c 0x00000000   Number         0  stm32f10x_flash.o ABSOLUTE
    D:\Keil Files\Keil\STM32F1xx_DFP\2.4.1\Device\StdPeriph_Driver\src\stm32f10x_fsmc.c 0x00000000   Number         0  stm32f10x_fsmc.o ABSOLUTE
    D:\Keil Files\Keil\STM32F1xx_DFP\2.4.1\Device\StdPeriph_Driver\src\stm32f10x_gpio.c 0x00000000   Number         0  stm32f10x_gpio.o ABSOLUTE
    D:\Keil Files\Keil\STM32F1xx_DFP\2.4.1\Device\StdPeriph_Driver\src\stm32f10x_pwr.c 0x00000000   Number         0  stm32f10x_pwr.o ABSOLUTE
    D:\Keil Files\Keil\STM32F1xx_DFP\2.4.1\Device\StdPeriph_Driver\src\stm32f10x_rcc.c 0x00000000   Number         0  stm32f10x_rcc.o ABSOLUTE
    D:\Keil Files\Keil\STM32F1xx_DFP\2.4.1\Device\StdPeriph_Driver\src\stm32f10x_rtc.c 0x00000000   Number         0  stm32f10x_rtc.o ABSOLUTE
    D:\Keil Files\Keil\STM32F1xx_DFP\2.4.1\Device\StdPeriph_Driver\src\stm32f10x_sdio.c 0x00000000   Number         0  stm32f10x_sdio.o ABSOLUTE
    D:\Keil Files\Keil\STM32F1xx_DFP\2.4.1\Device\StdPeriph_Driver\src\stm32f10x_tim.c 0x00000000   Number         0  stm32f10x_tim.o ABSOLUTE
    D:\Keil Files\Keil\STM32F1xx_DFP\2.4.1\Device\StdPeriph_Driver\src\stm32f10x_usart.c 0x00000000   Number         0  stm32f10x_usart.o ABSOLUTE
    D:\Keil Files\Keil\STM32F1xx_DFP\2.4.1\RTE_Driver\DMA_STM32F10x.c 0x00000000   Number         0  dma_stm32f10x.o ABSOLUTE
    D:\Keil Files\Keil\STM32F1xx_DFP\2.4.1\RTE_Driver\GPIO_STM32F10x.c 0x00000000   Number         0  gpio_stm32f10x.o ABSOLUTE
    D:\\Keil Files\\Keil\\STM32F1xx_DFP\\2.4.1\\Device\\StdPeriph_Driver\\src\\misc.c 0x00000000   Number         0  misc.o ABSOLUTE
    D:\\Keil Files\\Keil\\STM32F1xx_DFP\\2.4.1\\Device\\StdPeriph_Driver\\src\\stm32f10x_bkp.c 0x00000000   Number         0  stm32f10x_bkp.o ABSOLUTE
    D:\\Keil Files\\Keil\\STM32F1xx_DFP\\2.4.1\\Device\\StdPeriph_Driver\\src\\stm32f10x_dbgmcu.c 0x00000000   Number         0  stm32f10x_dbgmcu.o ABSOLUTE
    D:\\Keil Files\\Keil\\STM32F1xx_DFP\\2.4.1\\Device\\StdPeriph_Driver\\src\\stm32f10x_dma.c 0x00000000   Number         0  stm32f10x_dma.o ABSOLUTE
    D:\\Keil Files\\Keil\\STM32F1xx_DFP\\2.4.1\\Device\\StdPeriph_Driver\\src\\stm32f10x_flash.c 0x00000000   Number         0  stm32f10x_flash.o ABSOLUTE
    D:\\Keil Files\\Keil\\STM32F1xx_DFP\\2.4.1\\Device\\StdPeriph_Driver\\src\\stm32f10x_fsmc.c 0x00000000   Number         0  stm32f10x_fsmc.o ABSOLUTE
    D:\\Keil Files\\Keil\\STM32F1xx_DFP\\2.4.1\\Device\\StdPeriph_Driver\\src\\stm32f10x_gpio.c 0x00000000   Number         0  stm32f10x_gpio.o ABSOLUTE
    D:\\Keil Files\\Keil\\STM32F1xx_DFP\\2.4.1\\Device\\StdPeriph_Driver\\src\\stm32f10x_pwr.c 0x00000000   Number         0  stm32f10x_pwr.o ABSOLUTE
    D:\\Keil Files\\Keil\\STM32F1xx_DFP\\2.4.1\\Device\\StdPeriph_Driver\\src\\stm32f10x_rcc.c 0x00000000   Number         0  stm32f10x_rcc.o ABSOLUTE
    D:\\Keil Files\\Keil\\STM32F1xx_DFP\\2.4.1\\Device\\StdPeriph_Driver\\src\\stm32f10x_rtc.c 0x00000000   Number         0  stm32f10x_rtc.o ABSOLUTE
    D:\\Keil Files\\Keil\\STM32F1xx_DFP\\2.4.1\\Device\\StdPeriph_Driver\\src\\stm32f10x_sdio.c 0x00000000   Number         0  stm32f10x_sdio.o ABSOLUTE
    D:\\Keil Files\\Keil\\STM32F1xx_DFP\\2.4.1\\Device\\StdPeriph_Driver\\src\\stm32f10x_tim.c 0x00000000   Number         0  stm32f10x_tim.o ABSOLUTE
    D:\\Keil Files\\Keil\\STM32F1xx_DFP\\2.4.1\\Device\\StdPeriph_Driver\\src\\stm32f10x_usart.c 0x00000000   Number         0  stm32f10x_usart.o ABSOLUTE
    D:\\Keil Files\\Keil\\STM32F1xx_DFP\\2.4.1\\RTE_Driver\\DMA_STM32F10x.c 0x00000000   Number         0  dma_stm32f10x.o ABSOLUTE
    D:\\Keil Files\\Keil\\STM32F1xx_DFP\\2.4.1\\RTE_Driver\\GPIO_STM32F10x.c 0x00000000   Number         0  gpio_stm32f10x.o ABSOLUTE
    RTE\Device\STM32F103ZE\startup_stm32f10x_hd.s 0x00000000   Number         0  startup_stm32f10x_hd.o ABSOLUTE
    RTE\Device\STM32F103ZE\system_stm32f10x.c 0x00000000   Number         0  system_stm32f10x.o ABSOLUTE
    RTE\\Device\\STM32F103ZE\\system_stm32f10x.c 0x00000000   Number         0  system_stm32f10x.o ABSOLUTE
    cdrcmple.s                               0x00000000   Number         0  cdrcmple.o ABSOLUTE
    dc.s                                     0x00000000   Number         0  dc.o ABSOLUTE
    handlers.s                               0x00000000   Number         0  handlers.o ABSOLUTE
    init.s                                   0x00000000   Number         0  init.o ABSOLUTE
    lib\24CXX\24cxx.c                        0x00000000   Number         0  24cxx.o ABSOLUTE
    lib\IIC\myiic.c                          0x00000000   Number         0  myiic.o ABSOLUTE
    lib\LCD\lcd.c                            0x00000000   Number         0  lcd.o ABSOLUTE
    lib\Malloc\malloc.c                      0x00000000   Number         0  malloc.o ABSOLUTE
    lib\SPI\SPI.c                            0x00000000   Number         0  spi.o ABSOLUTE
    lib\\24CXX\\24cxx.c                      0x00000000   Number         0  24cxx.o ABSOLUTE
    lib\\IIC\\myiic.c                        0x00000000   Number         0  myiic.o ABSOLUTE
    lib\\LCD\\lcd.c                          0x00000000   Number         0  lcd.o ABSOLUTE
    lib\\Malloc\\malloc.c                    0x00000000   Number         0  malloc.o ABSOLUTE
    lib\\SPI\\SPI.c                          0x00000000   Number         0  spi.o ABSOLUTE
    lib\\buzzle\\Buzzle.c                    0x00000000   Number         0  buzzle.o ABSOLUTE
    lib\\init.c                              0x00000000   Number         0  init.o ABSOLUTE
    lib\\led\\led.c                          0x00000000   Number         0  led.o ABSOLUTE
    lib\\my_stm32f10x_exti\\my_stm32f10x_exti.c 0x00000000   Number         0  my_stm32f10x_exti.o ABSOLUTE
    lib\\my_stm32f10x_spi\\my_stm32f10x_spi.c 0x00000000   Number         0  my_stm32f10x_spi.o ABSOLUTE
    lib\\ov7670\\ov7670.c                    0x00000000   Number         0  ov7670.o ABSOLUTE
    lib\\sccb\\sccb.c                        0x00000000   Number         0  sccb.o ABSOLUTE
    lib\\sram\\sram.c                        0x00000000   Number         0  sram.o ABSOLUTE
    lib\\sys\\sys.c                          0x00000000   Number         0  sys.o ABSOLUTE
    lib\\time\\time.c                        0x00000000   Number         0  time.o ABSOLUTE
    lib\\zbar\\zbar_config.c                 0x00000000   Number         0  zbar_config.o ABSOLUTE
    lib\buzzle\Buzzle.c                      0x00000000   Number         0  buzzle.o ABSOLUTE
    lib\init.c                               0x00000000   Number         0  init.o ABSOLUTE
    lib\led\led.c                            0x00000000   Number         0  led.o ABSOLUTE
    lib\my_stm32f10x_exti\my_stm32f10x_exti.c 0x00000000   Number         0  my_stm32f10x_exti.o ABSOLUTE
    lib\my_stm32f10x_spi\my_stm32f10x_spi.c  0x00000000   Number         0  my_stm32f10x_spi.o ABSOLUTE
    lib\ov7670\ov7670.c                      0x00000000   Number         0  ov7670.o ABSOLUTE
    lib\sccb\sccb.c                          0x00000000   Number         0  sccb.o ABSOLUTE
    lib\sram\sram.c                          0x00000000   Number         0  sram.o ABSOLUTE
    lib\sys\sys.c                            0x00000000   Number         0  sys.o ABSOLUTE
    lib\time\time.c                          0x00000000   Number         0  time.o ABSOLUTE
    lib\zbar\config.c                        0x00000000   Number         0  config.o ABSOLUTE
    lib\zbar\decoder.c                       0x00000000   Number         0  decoder.o ABSOLUTE
    lib\zbar\decoder\qr_finder.c             0x00000000   Number         0  qr_finder.o ABSOLUTE
    lib\zbar\error.c                         0x00000000   Number         0  error.o ABSOLUTE
    lib\zbar\image.c                         0x00000000   Number         0  image.o ABSOLUTE
    lib\zbar\img_scanner.c                   0x00000000   Number         0  img_scanner.o ABSOLUTE
    lib\zbar\qrcode\bch15_5.c                0x00000000   Number         0  bch15_5.o ABSOLUTE
    lib\zbar\qrcode\binarize.c               0x00000000   Number         0  binarize.o ABSOLUTE
    lib\zbar\qrcode\isaac.c                  0x00000000   Number         0  isaac.o ABSOLUTE
    lib\zbar\qrcode\qrdec.c                  0x00000000   Number         0  qrdec.o ABSOLUTE
    lib\zbar\qrcode\qrdectxt.c               0x00000000   Number         0  qrdectxt.o ABSOLUTE
    lib\zbar\qrcode\rs.c                     0x00000000   Number         0  rs.o ABSOLUTE
    lib\zbar\qrcode\util.c                   0x00000000   Number         0  util.o ABSOLUTE
    lib\zbar\refcnt.c                        0x00000000   Number         0  refcnt.o ABSOLUTE
    lib\zbar\scanner.c                       0x00000000   Number         0  scanner.o ABSOLUTE
    lib\zbar\symbol.c                        0x00000000   Number         0  symbol.o ABSOLUTE
    lib\zbar\zbar_config.c                   0x00000000   Number         0  zbar_config.o ABSOLUTE
    user\\main.c                             0x00000000   Number         0  main.o ABSOLUTE
    user\main.c                              0x00000000   Number         0  main.o ABSOLUTE
    RESET                                    0x08000000   Section      304  startup_stm32f10x_hd.o(RESET)
    .ARM.Collect$$$$00000000                 0x08000130   Section        0  entry.o(.ARM.Collect$$$$00000000)
    .ARM.Collect$$$$00000001                 0x08000130   Section        4  entry2.o(.ARM.Collect$$$$00000001)
    .ARM.Collect$$$$00000004                 0x08000134   Section        4  entry5.o(.ARM.Collect$$$$00000004)
    .ARM.Collect$$$$00000008                 0x08000138   Section        0  entry7b.o(.ARM.Collect$$$$00000008)
    .ARM.Collect$$$$0000000A                 0x08000138   Section        0  entry8b.o(.ARM.Collect$$$$0000000A)
    .ARM.Collect$$$$0000000B                 0x08000138   Section        8  entry9a.o(.ARM.Collect$$$$0000000B)
    .ARM.Collect$$$$0000000E                 0x08000140   Section        4  entry12b.o(.ARM.Collect$$$$0000000E)
    .ARM.Collect$$$$0000000F                 0x08000144   Section        0  entry10a.o(.ARM.Collect$$$$0000000F)
    .ARM.Collect$$$$00000011                 0x08000144   Section        0  entry11a.o(.ARM.Collect$$$$00000011)
    .ARM.Collect$$$$00002712                 0x08000144   Section        4  entry2.o(.ARM.Collect$$$$00002712)
    __lit__00000000                          0x08000144   Data           4  entry2.o(.ARM.Collect$$$$00002712)
    .text                                    0x08000148   Section       36  startup_stm32f10x_hd.o(.text)
    .text                                    0x0800016c   Section        0  ldiv.o(.text)
    .text                                    0x080001ce   Section        0  llsshr.o(.text)
    .text                                    0x080001f2   Section        0  qsort.o(.text)
    .text                                    0x0800028e   Section        0  memmovea.o(.text)
    .text                                    0x080002ce   Section        0  strcmp.o(.text)
    .text                                    0x080002ea   Section        0  memchr.o(.text)
    .text                                    0x080002fe   Section        0  memcmp.o(.text)
    .text                                    0x08000318   Section        0  uldiv.o(.text)
    .text                                    0x0800037c   Section       36  init.o(.text)
    .text                                    0x080003a0   Section        0  llshl.o(.text)
    .text                                    0x080003be   Section        0  llushr.o(.text)
    i.Buzzle_Init                            0x080003e0   Section        0  buzzle.o(i.Buzzle_Init)
    i.DMA1_Channel1_Event                    0x08000414   Section        0  dma_stm32f10x.o(i.DMA1_Channel1_Event)
    i.DMA1_Channel1_IRQHandler               0x08000418   Section        0  dma_stm32f10x.o(i.DMA1_Channel1_IRQHandler)
    i.DMA1_Channel2_Event                    0x08000434   Section        0  dma_stm32f10x.o(i.DMA1_Channel2_Event)
    i.DMA1_Channel2_IRQHandler               0x08000438   Section        0  dma_stm32f10x.o(i.DMA1_Channel2_IRQHandler)
    i.DMA1_Channel3_Event                    0x08000454   Section        0  dma_stm32f10x.o(i.DMA1_Channel3_Event)
    i.DMA1_Channel3_IRQHandler               0x08000458   Section        0  dma_stm32f10x.o(i.DMA1_Channel3_IRQHandler)
    i.DMA1_Channel4_Event                    0x08000474   Section        0  dma_stm32f10x.o(i.DMA1_Channel4_Event)
    i.DMA1_Channel4_IRQHandler               0x08000478   Section        0  dma_stm32f10x.o(i.DMA1_Channel4_IRQHandler)
    i.DMA1_Channel5_Event                    0x08000494   Section        0  dma_stm32f10x.o(i.DMA1_Channel5_Event)
    i.DMA1_Channel5_IRQHandler               0x08000498   Section        0  dma_stm32f10x.o(i.DMA1_Channel5_IRQHandler)
    i.DMA1_Channel6_Event                    0x080004b4   Section        0  dma_stm32f10x.o(i.DMA1_Channel6_Event)
    i.DMA1_Channel6_IRQHandler               0x080004b8   Section        0  dma_stm32f10x.o(i.DMA1_Channel6_IRQHandler)
    i.DMA1_Channel7_Event                    0x080004d4   Section        0  dma_stm32f10x.o(i.DMA1_Channel7_Event)
    i.DMA1_Channel7_IRQHandler               0x080004d8   Section        0  dma_stm32f10x.o(i.DMA1_Channel7_IRQHandler)
    i.DMA2_Channel1_Event                    0x080004f4   Section        0  dma_stm32f10x.o(i.DMA2_Channel1_Event)
    i.DMA2_Channel1_IRQHandler               0x080004f8   Section        0  dma_stm32f10x.o(i.DMA2_Channel1_IRQHandler)
    i.DMA2_Channel2_Event                    0x08000514   Section        0  dma_stm32f10x.o(i.DMA2_Channel2_Event)
    i.DMA2_Channel2_IRQHandler               0x08000518   Section        0  dma_stm32f10x.o(i.DMA2_Channel2_IRQHandler)
    i.DMA2_Channel3_Event                    0x08000538   Section        0  dma_stm32f10x.o(i.DMA2_Channel3_Event)
    i.DMA2_Channel3_IRQHandler               0x0800053c   Section        0  dma_stm32f10x.o(i.DMA2_Channel3_IRQHandler)
    i.DMA2_Channel4_5_IRQHandler             0x0800055c   Section        0  dma_stm32f10x.o(i.DMA2_Channel4_5_IRQHandler)
    i.DMA2_Channel4_Event                    0x08000594   Section        0  dma_stm32f10x.o(i.DMA2_Channel4_Event)
    i.DMA2_Channel5_Event                    0x08000596   Section        0  dma_stm32f10x.o(i.DMA2_Channel5_Event)
    i.EXTI7_Init                             0x08000598   Section        0  main.o(i.EXTI7_Init)
    i.EXTI9_5_IRQHandler                     0x080005e4   Section        0  main.o(i.EXTI9_5_IRQHandler)
    i.EXTI_ClearITPendingBit                 0x08000628   Section        0  my_stm32f10x_exti.o(i.EXTI_ClearITPendingBit)
    i.EXTI_GetITStatus                       0x08000634   Section        0  my_stm32f10x_exti.o(i.EXTI_GetITStatus)
    i.EXTI_Init                              0x0800065c   Section        0  my_stm32f10x_exti.o(i.EXTI_Init)
    i.FSMC_NORSRAMCmd                        0x080006f0   Section        0  stm32f10x_fsmc.o(i.FSMC_NORSRAMCmd)
    i.FSMC_NORSRAMInit                       0x08000724   Section        0  stm32f10x_fsmc.o(i.FSMC_NORSRAMInit)
    i.FSMC_SRAM_Init                         0x0800080c   Section        0  sram.o(i.FSMC_SRAM_Init)
    i.GPIO_Config                            0x08000900   Section        0  init.o(i.GPIO_Config)
    i.GPIO_EXTILineConfig                    0x08000934   Section        0  stm32f10x_gpio.o(i.GPIO_EXTILineConfig)
    i.GPIO_Init                              0x08000974   Section        0  stm32f10x_gpio.o(i.GPIO_Init)
    i.GPIO_ResetBits                         0x08000a8a   Section        0  stm32f10x_gpio.o(i.GPIO_ResetBits)
    i.GPIO_SetBits                           0x08000a8e   Section        0  stm32f10x_gpio.o(i.GPIO_SetBits)
    i.LCD_Clear                              0x08000a94   Section        0  lcd.o(i.LCD_Clear)
    i.LCD_GPIOInit                           0x08000af4   Section        0  lcd.o(i.LCD_GPIOInit)
    i.LCD_Init                               0x08000b20   Section        0  lcd.o(i.LCD_Init)
    i.LCD_RESET                              0x08000d70   Section        0  lcd.o(i.LCD_RESET)
    i.LCD_SetWindows                         0x08000d98   Section        0  lcd.o(i.LCD_SetWindows)
    i.LCD_WR_DATA                            0x08000df0   Section        0  lcd.o(i.LCD_WR_DATA)
    i.LCD_WR_REG                             0x08000e20   Section        0  lcd.o(i.LCD_WR_REG)
    i.LCD_WriteRAM_Prepare                   0x08000e4c   Section        0  lcd.o(i.LCD_WriteRAM_Prepare)
    i.LCD_WriteReg                           0x08000e5c   Section        0  lcd.o(i.LCD_WriteReg)
    i.LCD_direction                          0x08000e70   Section        0  lcd.o(i.LCD_direction)
    i.LED0_ON                                0x08000ef4   Section        0  led.o(i.LED0_ON)
    i.LED4_OFF                               0x08000f04   Section        0  led.o(i.LED4_OFF)
    i.LED4_ON                                0x08000f14   Section        0  led.o(i.LED4_ON)
    i.LED5_OFF                               0x08000f24   Section        0  led.o(i.LED5_OFF)
    i.LED5_ON                                0x08000f34   Section        0  led.o(i.LED5_ON)
    i.LED_Init                               0x08000f44   Section        0  led.o(i.LED_Init)
    i.Lcd_WriteData_16Bit                    0x08000f78   Section        0  lcd.o(i.Lcd_WriteData_16Bit)
    i.NVIC_Init                              0x08000fb0   Section        0  misc.o(i.NVIC_Init)
    i.OV7670_Brightness                      0x08001020   Section        0  ov7670.o(i.OV7670_Brightness)
    i.OV7670_Color_Saturation                0x08001052   Section        0  ov7670.o(i.OV7670_Color_Saturation)
    i.OV7670_Contrast                        0x080010cc   Section        0  ov7670.o(i.OV7670_Contrast)
    i.OV7670_Init                            0x08001100   Section        0  ov7670.o(i.OV7670_Init)
    i.OV7670_Light_Mode                      0x08001200   Section        0  ov7670.o(i.OV7670_Light_Mode)
    i.OV7670_Special_Effects                 0x0800125c   Section        0  ov7670.o(i.OV7670_Special_Effects)
    i.RCC_AHBPeriphClockCmd                  0x080012c8   Section        0  stm32f10x_rcc.o(i.RCC_AHBPeriphClockCmd)
    i.RCC_APB1PeriphClockCmd                 0x080012e8   Section        0  stm32f10x_rcc.o(i.RCC_APB1PeriphClockCmd)
    i.RCC_APB2PeriphClockCmd                 0x08001308   Section        0  stm32f10x_rcc.o(i.RCC_APB2PeriphClockCmd)
    i.RCC_GetClocksFreq                      0x08001328   Section        0  stm32f10x_rcc.o(i.RCC_GetClocksFreq)
    i.SCCB_Init                              0x080013fc   Section        0  sccb.o(i.SCCB_Init)
    i.SCCB_No_Ack                            0x0800144c   Section        0  sccb.o(i.SCCB_No_Ack)
    i.SCCB_RD_Byte                           0x0800148c   Section        0  sccb.o(i.SCCB_RD_Byte)
    i.SCCB_RD_Reg                            0x080014d8   Section        0  sccb.o(i.SCCB_RD_Reg)
    i.SCCB_SDA_IN                            0x08001528   Section        0  sccb.o(i.SCCB_SDA_IN)
    i.SCCB_SDA_OUT                           0x08001544   Section        0  sccb.o(i.SCCB_SDA_OUT)
    i.SCCB_Start                             0x08001568   Section        0  sccb.o(i.SCCB_Start)
    i.SCCB_Stop                              0x0800159c   Section        0  sccb.o(i.SCCB_Stop)
    i.SCCB_WR_Byte                           0x080015d0   Section        0  sccb.o(i.SCCB_WR_Byte)
    i.SCCB_WR_Reg                            0x08001654   Section        0  sccb.o(i.SCCB_WR_Reg)
    i.SPI2_Init                              0x08001694   Section        0  spi.o(i.SPI2_Init)
    i.SPI_Cmd                                0x08001730   Section        0  my_stm32f10x_spi.o(i.SPI_Cmd)
    i.SPI_Init                               0x08001748   Section        0  my_stm32f10x_spi.o(i.SPI_Init)
    i.SPI_WriteByte                          0x08001784   Section        0  spi.o(i.SPI_WriteByte)
    i.Serial_SendByte2                       0x080017a8   Section        0  init.o(i.Serial_SendByte2)
    i.Serial_SendByte4                       0x080017c8   Section        0  init.o(i.Serial_SendByte4)
    i.Serial_SendString2                     0x080017e8   Section        0  init.o(i.Serial_SendString2)
    i.Serial_SendString4                     0x08001802   Section        0  init.o(i.Serial_SendString4)
    i.SetSysClock                            0x0800181c   Section        0  system_stm32f10x.o(i.SetSysClock)
    SetSysClock                              0x0800181d   Thumb Code     8  system_stm32f10x.o(i.SetSysClock)
    i.SetSysClockTo72                        0x08001824   Section        0  system_stm32f10x.o(i.SetSysClockTo72)
    SetSysClockTo72                          0x08001825   Thumb Code   214  system_stm32f10x.o(i.SetSysClockTo72)
    i.SysTick_CLKSourceConfig                0x08001904   Section        0  misc.o(i.SysTick_CLKSourceConfig)
    i.SystemInit                             0x0800192c   Section        0  system_stm32f10x.o(i.SystemInit)
    i.Systick_Config                         0x0800198c   Section        0  init.o(i.Systick_Config)
    i.TIM4_IRQHandler                        0x080019c8   Section        0  time.o(i.TIM4_IRQHandler)
    i.TIM_ClearITPendingBit                  0x08001a08   Section        0  stm32f10x_tim.o(i.TIM_ClearITPendingBit)
    i.TIM_GetITStatus                        0x08001a0e   Section        0  stm32f10x_tim.o(i.TIM_GetITStatus)
    i.UART4_Init                             0x08001a30   Section        0  init.o(i.UART4_Init)
    i.USART2_Init                            0x08001ab8   Section        0  init.o(i.USART2_Init)
    i.USART_Cmd                              0x08001b3c   Section        0  stm32f10x_usart.o(i.USART_Cmd)
    i.USART_Config                           0x08001b54   Section        0  init.o(i.USART_Config)
    i.USART_GetFlagStatus                    0x08001bd0   Section        0  stm32f10x_usart.o(i.USART_GetFlagStatus)
    i.USART_Init                             0x08001bec   Section        0  stm32f10x_usart.o(i.USART_Init)
    i.USART_SendData                         0x08001cc4   Section        0  stm32f10x_usart.o(i.USART_SendData)
    i.Zbar_Test                              0x08001ccc   Section        0  main.o(i.Zbar_Test)
    i.Zbar_calloc                            0x08001de0   Section        0  zbar_config.o(i.Zbar_calloc)
    i.Zbar_free                              0x08001e04   Section        0  zbar_config.o(i.Zbar_free)
    i.Zbar_malloc                            0x08001e12   Section        0  zbar_config.o(i.Zbar_malloc)
    i.Zbar_memcpy                            0x08001e20   Section        0  zbar_config.o(i.Zbar_memcpy)
    i.Zbar_memset                            0x08001e34   Section        0  zbar_config.o(i.Zbar_memset)
    i.Zbar_realloc                           0x08001e48   Section        0  zbar_config.o(i.Zbar_realloc)
    i.__0fprintf$8                           0x08001e5c   Section        0  printf8.o(i.__0fprintf$8)
    i.__0printf$8                            0x08001e78   Section        0  printf8.o(i.__0printf$8)
    i.__scatterload_copy                     0x08001e98   Section       14  handlers.o(i.__scatterload_copy)
    i.__scatterload_null                     0x08001ea6   Section        2  handlers.o(i.__scatterload_null)
    i.__scatterload_zeroinit                 0x08001ea8   Section       14  handlers.o(i.__scatterload_zeroinit)
    i._printf_core                           0x08001eb8   Section        0  printf8.o(i._printf_core)
    _printf_core                             0x08001eb9   Thumb Code   984  printf8.o(i._printf_core)
    i._printf_post_padding                   0x080022bc   Section        0  printf8.o(i._printf_post_padding)
    _printf_post_padding                     0x080022bd   Thumb Code    36  printf8.o(i._printf_post_padding)
    i._printf_pre_padding                    0x080022e0   Section        0  printf8.o(i._printf_pre_padding)
    _printf_pre_padding                      0x080022e1   Thumb Code    46  printf8.o(i._printf_pre_padding)
    i._zbar_decoder_get_qr_finder_line       0x0800230e   Section        0  qr_finder.o(i._zbar_decoder_get_qr_finder_line)
    i._zbar_find_qr                          0x08002316   Section        0  qr_finder.o(i._zbar_find_qr)
    i._zbar_image_free                       0x08002422   Section        0  image.o(i._zbar_image_free)
    i._zbar_image_refcnt                     0x08002440   Section        0  image.o(i._zbar_image_refcnt)
    _zbar_image_refcnt                       0x08002441   Thumb Code    46  image.o(i._zbar_image_refcnt)
    i._zbar_image_scanner_add_sym            0x0800246e   Section        0  img_scanner.o(i._zbar_image_scanner_add_sym)
    i._zbar_image_scanner_alloc_sym          0x080024ce   Section        0  img_scanner.o(i._zbar_image_scanner_alloc_sym)
    i._zbar_image_scanner_recycle_syms       0x080025a6   Section        0  img_scanner.o(i._zbar_image_scanner_recycle_syms)
    i._zbar_qr_create                        0x08002652   Section        0  qrdec.o(i._zbar_qr_create)
    i._zbar_qr_decode                        0x0800266c   Section        0  qrdec.o(i._zbar_qr_decode)
    i._zbar_qr_destroy                       0x08002790   Section        0  qrdec.o(i._zbar_qr_destroy)
    i._zbar_qr_found_line                    0x0800280c   Section        0  qrdec.o(i._zbar_qr_found_line)
    i._zbar_qr_reset                         0x08002862   Section        0  qrdec.o(i._zbar_qr_reset)
    i._zbar_refcnt                           0x08002872   Section        0  img_scanner.o(i._zbar_refcnt)
    _zbar_refcnt                             0x08002873   Thumb Code    12  img_scanner.o(i._zbar_refcnt)
    i._zbar_refcnt                           0x0800287e   Section        0  symbol.o(i._zbar_refcnt)
    _zbar_refcnt                             0x0800287f   Thumb Code    12  symbol.o(i._zbar_refcnt)
    i._zbar_refcnt_init                      0x0800288a   Section        0  refcnt.o(i._zbar_refcnt_init)
    i._zbar_symbol_free                      0x0800288c   Section        0  symbol.o(i._zbar_symbol_free)
    i._zbar_symbol_refcnt                    0x080028c2   Section        0  symbol.o(i._zbar_symbol_refcnt)
    _zbar_symbol_refcnt                      0x080028c3   Thumb Code    30  symbol.o(i._zbar_symbol_refcnt)
    i._zbar_symbol_set_create                0x080028e0   Section        0  symbol.o(i._zbar_symbol_set_create)
    i._zbar_symbol_set_free                  0x080028f8   Section        0  symbol.o(i._zbar_symbol_set_free)
    i.bch15_5_calc_epos                      0x08002920   Section        0  bch15_5.o(i.bch15_5_calc_epos)
    bch15_5_calc_epos                        0x08002921   Thumb Code   134  bch15_5.o(i.bch15_5_calc_epos)
    i.bch15_5_calc_omega                     0x080029b0   Section        0  bch15_5.o(i.bch15_5_calc_omega)
    bch15_5_calc_omega                       0x080029b1   Thumb Code   104  bch15_5.o(i.bch15_5_calc_omega)
    i.bch15_5_calc_syndrome                  0x08002a18   Section        0  bch15_5.o(i.bch15_5_calc_syndrome)
    bch15_5_calc_syndrome                    0x08002a19   Thumb Code   150  bch15_5.o(i.bch15_5_calc_syndrome)
    i.bch15_5_correct                        0x08002ab4   Section        0  bch15_5.o(i.bch15_5_correct)
    i.bch15_5_encode                         0x08002b06   Section        0  bch15_5.o(i.bch15_5_encode)
    i.bch18_6_correct                        0x08002b4c   Section        0  qrdec.o(i.bch18_6_correct)
    bch18_6_correct                          0x08002b4d   Thumb Code   112  qrdec.o(i.bch18_6_correct)
    i.buzzle6_OFF                            0x08002bc0   Section        0  led.o(i.buzzle6_OFF)
    i.buzzle6_ON                             0x08002bd0   Section        0  led.o(i.buzzle6_ON)
    i.cache_lookup                           0x08002be0   Section        0  img_scanner.o(i.cache_lookup)
    cache_lookup                             0x08002be1   Thumb Code   106  img_scanner.o(i.cache_lookup)
    i.cache_sym                              0x08002c4a   Section        0  img_scanner.o(i.cache_sym)
    cache_sym                                0x08002c4b   Thumb Code   174  img_scanner.o(i.cache_sym)
    i.calc_thresh                            0x08002cf8   Section        0  scanner.o(i.calc_thresh)
    calc_thresh                              0x08002cf9   Thumb Code    64  scanner.o(i.calc_thresh)
    i.camera_refresh                         0x08002d38   Section        0  main.o(i.camera_refresh)
    i.decode_e                               0x08002e3c   Section        0  qr_finder.o(i.decode_e)
    decode_e                                 0x08002e3d   Thumb Code    38  qr_finder.o(i.decode_e)
    i.decoder_set_config_bool                0x08002e62   Section        0  decoder.o(i.decoder_set_config_bool)
    decoder_set_config_bool                  0x08002e63   Thumb Code    72  decoder.o(i.decoder_set_config_bool)
    i.delay_ms                               0x08002eac   Section        0  init.o(i.delay_ms)
    i.delay_us                               0x08002ef8   Section        0  init.o(i.delay_us)
    i.dump_stats                             0x08002f44   Section        0  img_scanner.o(i.dump_stats)
    dump_stats                               0x08002f45   Thumb Code   158  img_scanner.o(i.dump_stats)
    i.fputc                                  0x080030d0   Section        0  init.o(i.fputc)
    i.get_width                              0x080030ec   Section        0  qr_finder.o(i.get_width)
    get_width                                0x080030ed   Thumb Code    18  qr_finder.o(i.get_width)
    i.gf16_div                               0x08003100   Section        0  bch15_5.o(i.gf16_div)
    gf16_div                                 0x08003101   Thumb Code    26  bch15_5.o(i.gf16_div)
    i.gf16_hmul                              0x08003124   Section        0  bch15_5.o(i.gf16_hmul)
    gf16_hmul                                0x08003125   Thumb Code    20  bch15_5.o(i.gf16_hmul)
    i.gf16_mul                               0x08003140   Section        0  bch15_5.o(i.gf16_mul)
    gf16_mul                                 0x08003141   Thumb Code    26  bch15_5.o(i.gf16_mul)
    i.isaac_init                             0x08003164   Section        0  isaac.o(i.isaac_init)
    i.isaac_mix                              0x080032b4   Section        0  isaac.o(i.isaac_mix)
    isaac_mix                                0x080032b5   Thumb Code   184  isaac.o(i.isaac_mix)
    i.isaac_next_uint                        0x08003370   Section        0  isaac.o(i.isaac_next_uint)
    i.isaac_next_uint32                      0x0800339a   Section        0  isaac.o(i.isaac_next_uint32)
    i.isaac_update                           0x080033b6   Section        0  isaac.o(i.isaac_update)
    isaac_update                             0x080033b7   Thumb Code   544  isaac.o(i.isaac_update)
    i.main                                   0x080035d8   Section        0  main.o(i.main)
    i.my_mem_free                            0x080036a8   Section        0  malloc.o(i.my_mem_free)
    i.my_mem_init                            0x08003714   Section        0  malloc.o(i.my_mem_init)
    i.my_mem_malloc                          0x08003758   Section        0  malloc.o(i.my_mem_malloc)
    i.my_mem_perused                         0x08003800   Section        0  malloc.o(i.my_mem_perused)
    i.myfree                                 0x08003840   Section        0  malloc.o(i.myfree)
    i.mymalloc                               0x08003864   Section        0  malloc.o(i.mymalloc)
    i.mymemcpy                               0x0800388c   Section        0  malloc.o(i.mymemcpy)
    i.mymemset                               0x080038a6   Section        0  malloc.o(i.mymemset)
    i.myrealloc                              0x080038bc   Section        0  malloc.o(i.myrealloc)
    i.pair_width                             0x08003900   Section        0  qr_finder.o(i.pair_width)
    pair_width                               0x08003901   Thumb Code    30  qr_finder.o(i.pair_width)
    i.process_edge                           0x0800391e   Section        0  scanner.o(i.process_edge)
    process_edge                             0x0800391f   Thumb Code    56  scanner.o(i.process_edge)
    i.qr_aff_init                            0x08003956   Section        0  qrdec.o(i.qr_aff_init)
    qr_aff_init                              0x08003957   Thumb Code   246  qrdec.o(i.qr_aff_init)
    i.qr_aff_line_step                       0x08003a4c   Section        0  qrdec.o(i.qr_aff_line_step)
    qr_aff_line_step                         0x08003a4d   Thumb Code   278  qrdec.o(i.qr_aff_line_step)
    i.qr_aff_project                         0x08003b62   Section        0  qrdec.o(i.qr_aff_project)
    qr_aff_project                           0x08003b63   Thumb Code    72  qrdec.o(i.qr_aff_project)
    i.qr_aff_unproject                       0x08003baa   Section        0  qrdec.o(i.qr_aff_unproject)
    qr_aff_unproject                         0x08003bab   Thumb Code    44  qrdec.o(i.qr_aff_unproject)
    i.qr_alignment_pattern_fetch             0x08003bd6   Section        0  qrdec.o(i.qr_alignment_pattern_fetch)
    qr_alignment_pattern_fetch               0x08003bd7   Thumb Code   118  qrdec.o(i.qr_alignment_pattern_fetch)
    i.qr_alignment_pattern_search            0x08003c4c   Section        0  qrdec.o(i.qr_alignment_pattern_search)
    qr_alignment_pattern_search              0x08003c4d   Thumb Code  1728  qrdec.o(i.qr_alignment_pattern_search)
    i.qr_binarize                            0x08004310   Section        0  binarize.o(i.qr_binarize)
    i.qr_cmp_edge_pt                         0x08004594   Section        0  qrdec.o(i.qr_cmp_edge_pt)
    qr_cmp_edge_pt                           0x08004595   Thumb Code    76  qrdec.o(i.qr_cmp_edge_pt)
    i.qr_code_data_clear                     0x080045e0   Section        0  qrdec.o(i.qr_code_data_clear)
    qr_code_data_clear                       0x080045e1   Thumb Code    66  qrdec.o(i.qr_code_data_clear)
    i.qr_code_data_list_add                  0x08004622   Section        0  qrdec.o(i.qr_code_data_list_add)
    qr_code_data_list_add                    0x08004623   Thumb Code    66  qrdec.o(i.qr_code_data_list_add)
    i.qr_code_data_list_clear                0x08004664   Section        0  qrdec.o(i.qr_code_data_list_clear)
    i.qr_code_data_list_extract_text         0x08004690   Section        0  qrdectxt.o(i.qr_code_data_list_extract_text)
    i.qr_code_data_list_init                 0x08004b9c   Section        0  qrdec.o(i.qr_code_data_list_init)
    i.qr_code_data_parse                     0x08004ba8   Section        0  qrdec.o(i.qr_code_data_parse)
    qr_code_data_parse                       0x08004ba9   Thumb Code  1098  qrdec.o(i.qr_code_data_parse)
    i.qr_code_decode                         0x08005000   Section        0  qrdec.o(i.qr_code_decode)
    qr_code_decode                           0x08005001   Thumb Code   426  qrdec.o(i.qr_code_decode)
    i.qr_code_ncodewords                     0x080051b8   Section        0  qrdec.o(i.qr_code_ncodewords)
    qr_code_ncodewords                       0x080051b9   Thumb Code    64  qrdec.o(i.qr_code_ncodewords)
    i.qr_data_mask_fill                      0x080051f8   Section        0  qrdec.o(i.qr_data_mask_fill)
    qr_data_mask_fill                        0x080051f9   Thumb Code   528  qrdec.o(i.qr_data_mask_fill)
    i.qr_finder_center_cmp                   0x08005408   Section        0  qrdec.o(i.qr_finder_center_cmp)
    qr_finder_center_cmp                     0x08005409   Thumb Code   110  qrdec.o(i.qr_finder_center_cmp)
    i.qr_finder_centers_locate               0x08005478   Section        0  qrdec.o(i.qr_finder_centers_locate)
    qr_finder_centers_locate                 0x08005479   Thumb Code   288  qrdec.o(i.qr_finder_centers_locate)
    i.qr_finder_cluster_lines                0x0800559c   Section        0  qrdec.o(i.qr_finder_cluster_lines)
    qr_finder_cluster_lines                  0x0800559d   Thumb Code   542  qrdec.o(i.qr_finder_cluster_lines)
    i.qr_finder_edge_pts_aff_classify        0x080057bc   Section        0  qrdec.o(i.qr_finder_edge_pts_aff_classify)
    qr_finder_edge_pts_aff_classify          0x080057bd   Thumb Code   226  qrdec.o(i.qr_finder_edge_pts_aff_classify)
    i.qr_finder_edge_pts_fill                0x080058a4   Section        0  qrdec.o(i.qr_finder_edge_pts_fill)
    qr_finder_edge_pts_fill                  0x080058a5   Thumb Code   178  qrdec.o(i.qr_finder_edge_pts_fill)
    i.qr_finder_edge_pts_hom_classify        0x08005958   Section        0  qrdec.o(i.qr_finder_edge_pts_hom_classify)
    qr_finder_edge_pts_hom_classify          0x08005959   Thumb Code   252  qrdec.o(i.qr_finder_edge_pts_hom_classify)
    i.qr_finder_estimate_module_size_and_version 0x08005a58   Section        0  qrdec.o(i.qr_finder_estimate_module_size_and_version)
    qr_finder_estimate_module_size_and_version 0x08005a59   Thumb Code   548  qrdec.o(i.qr_finder_estimate_module_size_and_version)
    i.qr_finder_find_crossings               0x08005c7c   Section        0  qrdec.o(i.qr_finder_find_crossings)
    qr_finder_find_crossings                 0x08005c7d   Thumb Code   546  qrdec.o(i.qr_finder_find_crossings)
    i.qr_finder_fmt_info_decode              0x08005ea4   Section        0  qrdec.o(i.qr_finder_fmt_info_decode)
    qr_finder_fmt_info_decode                0x08005ea5   Thumb Code  1034  qrdec.o(i.qr_finder_fmt_info_decode)
    i.qr_finder_lines_are_crossing           0x080062ae   Section        0  qrdec.o(i.qr_finder_lines_are_crossing)
    qr_finder_lines_are_crossing             0x080062af   Thumb Code    50  qrdec.o(i.qr_finder_lines_are_crossing)
    i.qr_finder_locate_crossing              0x080062e0   Section        0  qrdec.o(i.qr_finder_locate_crossing)
    qr_finder_locate_crossing                0x080062e1   Thumb Code   424  qrdec.o(i.qr_finder_locate_crossing)
    i.qr_finder_quick_crossing_check         0x08006488   Section        0  qrdec.o(i.qr_finder_quick_crossing_check)
    qr_finder_quick_crossing_check           0x08006489   Thumb Code   130  qrdec.o(i.qr_finder_quick_crossing_check)
    i.qr_finder_ransac                       0x0800650a   Section        0  qrdec.o(i.qr_finder_ransac)
    qr_finder_ransac                         0x0800650b   Thumb Code   500  qrdec.o(i.qr_finder_ransac)
    i.qr_finder_version_decode               0x080066fe   Section        0  qrdec.o(i.qr_finder_version_decode)
    qr_finder_version_decode                 0x080066ff   Thumb Code   388  qrdec.o(i.qr_finder_version_decode)
    i.qr_finder_vline_cmp                    0x08006882   Section        0  qrdec.o(i.qr_finder_vline_cmp)
    qr_finder_vline_cmp                      0x08006883   Thumb Code    76  qrdec.o(i.qr_finder_vline_cmp)
    i.qr_hamming_dist                        0x080068ce   Section        0  qrdec.o(i.qr_hamming_dist)
    qr_hamming_dist                          0x080068cf   Thumb Code    30  qrdec.o(i.qr_hamming_dist)
    i.qr_handler                             0x080068ec   Section        0  img_scanner.o(i.qr_handler)
    qr_handler                               0x080068ed   Thumb Code   160  img_scanner.o(i.qr_handler)
    i.qr_hom_cell_fproject                   0x0800698c   Section        0  qrdec.o(i.qr_hom_cell_fproject)
    qr_hom_cell_fproject                     0x0800698d   Thumb Code   104  qrdec.o(i.qr_hom_cell_fproject)
    i.qr_hom_cell_init                       0x080069f4   Section        0  qrdec.o(i.qr_hom_cell_init)
    qr_hom_cell_init                         0x080069f5   Thumb Code  2832  qrdec.o(i.qr_hom_cell_init)
    i.qr_hom_cell_project                    0x08007504   Section        0  qrdec.o(i.qr_hom_cell_project)
    qr_hom_cell_project                      0x08007505   Thumb Code    88  qrdec.o(i.qr_hom_cell_project)
    i.qr_hom_fit                             0x0800755c   Section        0  qrdec.o(i.qr_hom_fit)
    qr_hom_fit                               0x0800755d   Thumb Code  4248  qrdec.o(i.qr_hom_fit)
    i.qr_hom_fproject                        0x080085f4   Section        0  qrdec.o(i.qr_hom_fproject)
    qr_hom_fproject                          0x080085f5   Thumb Code   104  qrdec.o(i.qr_hom_fproject)
    i.qr_hom_init                            0x0800865c   Section        0  qrdec.o(i.qr_hom_init)
    qr_hom_init                              0x0800865d   Thumb Code  2666  qrdec.o(i.qr_hom_init)
    i.qr_hom_unproject                       0x080090c6   Section        0  qrdec.o(i.qr_hom_unproject)
    qr_hom_unproject                         0x080090c7   Thumb Code   202  qrdec.o(i.qr_hom_unproject)
    i.qr_ihypot                              0x08009190   Section        0  util.o(i.qr_ihypot)
    i.qr_ilog                                0x0800929c   Section        0  util.o(i.qr_ilog)
    i.qr_img_get_bit                         0x080092f8   Section        0  qrdec.o(i.qr_img_get_bit)
    qr_img_get_bit                           0x080092f9   Thumb Code   152  qrdec.o(i.qr_img_get_bit)
    i.qr_isqrt                               0x08009390   Section        0  util.o(i.qr_isqrt)
    i.qr_line_eval                           0x080093bc   Section        0  qrdec.o(i.qr_line_eval)
    qr_line_eval                             0x080093bd   Thumb Code    20  qrdec.o(i.qr_line_eval)
    i.qr_line_fit                            0x080093d0   Section        0  qrdec.o(i.qr_line_fit)
    qr_line_fit                              0x080093d1   Thumb Code   338  qrdec.o(i.qr_line_fit)
    i.qr_line_fit_finder_edge                0x08009522   Section        0  qrdec.o(i.qr_line_fit_finder_edge)
    qr_line_fit_finder_edge                  0x08009523   Thumb Code   112  qrdec.o(i.qr_line_fit_finder_edge)
    i.qr_line_fit_finder_pair                0x08009592   Section        0  qrdec.o(i.qr_line_fit_finder_pair)
    qr_line_fit_finder_pair                  0x08009593   Thumb Code   326  qrdec.o(i.qr_line_fit_finder_pair)
    i.qr_line_fit_points                     0x080096d8   Section        0  qrdec.o(i.qr_line_fit_points)
    qr_line_fit_points                       0x080096d9   Thumb Code   808  qrdec.o(i.qr_line_fit_points)
    i.qr_line_isect                          0x08009a00   Section        0  qrdec.o(i.qr_line_isect)
    qr_line_isect                            0x08009a01   Thumb Code   118  qrdec.o(i.qr_line_isect)
    i.qr_line_orient                         0x08009a76   Section        0  qrdec.o(i.qr_line_orient)
    qr_line_orient                           0x08009a77   Thumb Code    42  qrdec.o(i.qr_line_orient)
    i.qr_pack_buf_avail                      0x08009aa0   Section        0  qrdec.o(i.qr_pack_buf_avail)
    qr_pack_buf_avail                        0x08009aa1   Thumb Code    16  qrdec.o(i.qr_pack_buf_avail)
    i.qr_pack_buf_init                       0x08009ab0   Section        0  qrdec.o(i.qr_pack_buf_init)
    qr_pack_buf_init                         0x08009ab1   Thumb Code    12  qrdec.o(i.qr_pack_buf_init)
    i.qr_pack_buf_read                       0x08009abc   Section        0  qrdec.o(i.qr_pack_buf_read)
    qr_pack_buf_read                         0x08009abd   Thumb Code   118  qrdec.o(i.qr_pack_buf_read)
    i.qr_point_ccw                           0x08009b32   Section        0  qrdec.o(i.qr_point_ccw)
    qr_point_ccw                             0x08009b33   Thumb Code    34  qrdec.o(i.qr_point_ccw)
    i.qr_point_distance2                     0x08009b54   Section        0  qrdec.o(i.qr_point_distance2)
    qr_point_distance2                       0x08009b55   Thumb Code    30  qrdec.o(i.qr_point_distance2)
    i.qr_point_translate                     0x08009b72   Section        0  qrdec.o(i.qr_point_translate)
    qr_point_translate                       0x08009b73   Thumb Code    14  qrdec.o(i.qr_point_translate)
    i.qr_reader_init                         0x08009b80   Section        0  qrdec.o(i.qr_reader_init)
    qr_reader_init                           0x08009b81   Thumb Code    26  qrdec.o(i.qr_reader_init)
    i.qr_reader_match_centers                0x08009b9a   Section        0  qrdec.o(i.qr_reader_match_centers)
    i.qr_reader_try_configuration            0x08009d82   Section        0  qrdec.o(i.qr_reader_try_configuration)
    qr_reader_try_configuration              0x08009d83   Thumb Code   910  qrdec.o(i.qr_reader_try_configuration)
    i.qr_samples_unpack                      0x0800a110   Section        0  qrdec.o(i.qr_samples_unpack)
    qr_samples_unpack                        0x0800a111   Thumb Code   642  qrdec.o(i.qr_samples_unpack)
    i.qr_sampling_grid_clear                 0x0800a392   Section        0  qrdec.o(i.qr_sampling_grid_clear)
    qr_sampling_grid_clear                   0x0800a393   Thumb Code    18  qrdec.o(i.qr_sampling_grid_clear)
    i.qr_sampling_grid_fp_mask_rect          0x0800a3a4   Section        0  qrdec.o(i.qr_sampling_grid_fp_mask_rect)
    qr_sampling_grid_fp_mask_rect            0x0800a3a5   Thumb Code   100  qrdec.o(i.qr_sampling_grid_fp_mask_rect)
    i.qr_sampling_grid_init                  0x0800a408   Section        0  qrdec.o(i.qr_sampling_grid_init)
    qr_sampling_grid_init                    0x0800a409   Thumb Code  2612  qrdec.o(i.qr_sampling_grid_init)
    i.qr_sampling_grid_is_in_fp              0x0800ae44   Section        0  qrdec.o(i.qr_sampling_grid_is_in_fp)
    qr_sampling_grid_is_in_fp                0x0800ae45   Thumb Code    34  qrdec.o(i.qr_sampling_grid_is_in_fp)
    i.qr_sampling_grid_sample                0x0800ae66   Section        0  qrdec.o(i.qr_sampling_grid_sample)
    qr_sampling_grid_sample                  0x0800ae67   Thumb Code   362  qrdec.o(i.qr_sampling_grid_sample)
    i.quiet_border                           0x0800afd0   Section        0  img_scanner.o(i.quiet_border)
    quiet_border                             0x0800afd1   Thumb Code    26  img_scanner.o(i.quiet_border)
    i.recycle_syms                           0x0800afea   Section        0  img_scanner.o(i.recycle_syms)
    recycle_syms                             0x0800afeb   Thumb Code    42  img_scanner.o(i.recycle_syms)
    i.rs_calc_syndrome                       0x0800b014   Section        0  rs.o(i.rs_calc_syndrome)
    rs_calc_syndrome                         0x0800b015   Thumb Code    80  rs.o(i.rs_calc_syndrome)
    i.rs_correct                             0x0800b064   Section        0  rs.o(i.rs_correct)
    i.rs_cubic_solve                         0x0800b1d6   Section        0  rs.o(i.rs_cubic_solve)
    rs_cubic_solve                           0x0800b1d7   Thumb Code   348  rs.o(i.rs_cubic_solve)
    i.rs_find_roots                          0x0800b332   Section        0  rs.o(i.rs_find_roots)
    rs_find_roots                            0x0800b333   Thumb Code   160  rs.o(i.rs_find_roots)
    i.rs_gdiv                                0x0800b3d2   Section        0  rs.o(i.rs_gdiv)
    rs_gdiv                                  0x0800b3d3   Thumb Code    26  rs.o(i.rs_gdiv)
    i.rs_gf256_init                          0x0800b3ec   Section        0  rs.o(i.rs_gf256_init)
    i.rs_gmul                                0x0800b430   Section        0  rs.o(i.rs_gmul)
    rs_gmul                                  0x0800b431   Thumb Code    26  rs.o(i.rs_gmul)
    i.rs_gsqrt                               0x0800b44a   Section        0  rs.o(i.rs_gsqrt)
    rs_gsqrt                                 0x0800b44b   Thumb Code    34  rs.o(i.rs_gsqrt)
    i.rs_hgmul                               0x0800b46c   Section        0  rs.o(i.rs_hgmul)
    rs_hgmul                                 0x0800b46d   Thumb Code    22  rs.o(i.rs_hgmul)
    i.rs_init_lambda                         0x0800b482   Section        0  rs.o(i.rs_init_lambda)
    rs_init_lambda                           0x0800b483   Thumb Code    88  rs.o(i.rs_init_lambda)
    i.rs_modified_berlekamp_massey           0x0800b4da   Section        0  rs.o(i.rs_modified_berlekamp_massey)
    rs_modified_berlekamp_massey             0x0800b4db   Thumb Code   262  rs.o(i.rs_modified_berlekamp_massey)
    i.rs_poly_copy                           0x0800b5e0   Section        0  rs.o(i.rs_poly_copy)
    rs_poly_copy                             0x0800b5e1   Thumb Code    20  rs.o(i.rs_poly_copy)
    i.rs_poly_mul_x                          0x0800b5f4   Section        0  rs.o(i.rs_poly_mul_x)
    rs_poly_mul_x                            0x0800b5f5   Thumb Code    24  rs.o(i.rs_poly_mul_x)
    i.rs_poly_mult                           0x0800b60c   Section        0  rs.o(i.rs_poly_mult)
    rs_poly_mult                             0x0800b60d   Thumb Code   118  rs.o(i.rs_poly_mult)
    i.rs_poly_zero                           0x0800b682   Section        0  rs.o(i.rs_poly_zero)
    rs_poly_zero                             0x0800b683   Thumb Code    18  rs.o(i.rs_poly_zero)
    i.rs_quadratic_solve                     0x0800b694   Section        0  rs.o(i.rs_quadratic_solve)
    rs_quadratic_solve                       0x0800b695   Thumb Code   550  rs.o(i.rs_quadratic_solve)
    i.rs_quartic_solve                       0x0800b8ba   Section        0  rs.o(i.rs_quartic_solve)
    rs_quartic_solve                         0x0800b8bb   Thumb Code   412  rs.o(i.rs_quartic_solve)
    i.sym_add_point                          0x0800ba56   Section        0  img_scanner.o(i.sym_add_point)
    sym_add_point                            0x0800ba57   Thumb Code    58  img_scanner.o(i.sym_add_point)
    i.sym_add_point                          0x0800ba90   Section        0  qrdectxt.o(i.sym_add_point)
    sym_add_point                            0x0800ba91   Thumb Code    58  qrdectxt.o(i.sym_add_point)
    i.symbol_handler                         0x0800baca   Section        0  img_scanner.o(i.symbol_handler)
    symbol_handler                           0x0800bacb   Thumb Code   238  img_scanner.o(i.symbol_handler)
    i.zbar_decode_width                      0x0800bbb8   Section        0  decoder.o(i.zbar_decode_width)
    i.zbar_decoder_create                    0x0800bc1c   Section        0  decoder.o(i.zbar_decoder_create)
    i.zbar_decoder_destroy                   0x0800bc94   Section        0  decoder.o(i.zbar_decoder_destroy)
    i.zbar_decoder_get_data                  0x0800bcaa   Section        0  decoder.o(i.zbar_decoder_get_data)
    i.zbar_decoder_get_data_length           0x0800bcb0   Section        0  decoder.o(i.zbar_decoder_get_data_length)
    i.zbar_decoder_get_type                  0x0800bcb6   Section        0  decoder.o(i.zbar_decoder_get_type)
    i.zbar_decoder_get_userdata              0x0800bcbe   Section        0  decoder.o(i.zbar_decoder_get_userdata)
    i.zbar_decoder_new_scan                  0x0800bcc4   Section        0  decoder.o(i.zbar_decoder_new_scan)
    i.zbar_decoder_reset                     0x0800bce2   Section        0  decoder.o(i.zbar_decoder_reset)
    i.zbar_decoder_set_config                0x0800bcfe   Section        0  decoder.o(i.zbar_decoder_set_config)
    i.zbar_decoder_set_handler               0x0800bdc4   Section        0  decoder.o(i.zbar_decoder_set_handler)
    i.zbar_decoder_set_userdata              0x0800bdcc   Section        0  decoder.o(i.zbar_decoder_set_userdata)
    i.zbar_get_symbol_name                   0x0800bdd0   Section        0  symbol.o(i.zbar_get_symbol_name)
    i.zbar_image_create                      0x0800be9c   Section        0  image.o(i.zbar_image_create)
    i.zbar_image_destroy                     0x0800bebe   Section        0  image.o(i.zbar_image_destroy)
    i.zbar_image_first_symbol                0x0800bece   Section        0  image.o(i.zbar_image_first_symbol)
    i.zbar_image_free_data                   0x0800bee0   Section        0  image.o(i.zbar_image_free_data)
    i.zbar_image_scanner_create              0x0800bf38   Section        0  img_scanner.o(i.zbar_image_scanner_create)
    i.zbar_image_scanner_destroy             0x0800bfc4   Section        0  img_scanner.o(i.zbar_image_scanner_destroy)
    i.zbar_image_scanner_recycle_image       0x0800c048   Section        0  img_scanner.o(i.zbar_image_scanner_recycle_image)
    i.zbar_image_scanner_set_config          0x0800c0ac   Section        0  img_scanner.o(i.zbar_image_scanner_set_config)
    i.zbar_image_set_data                    0x0800c122   Section        0  image.o(i.zbar_image_set_data)
    i.zbar_image_set_format                  0x0800c13e   Section        0  image.o(i.zbar_image_set_format)
    i.zbar_image_set_size                    0x0800c142   Section        0  image.o(i.zbar_image_set_size)
    i.zbar_scan_image                        0x0800c148   Section        0  img_scanner.o(i.zbar_scan_image)
    i.zbar_scan_y                            0x0800c520   Section        0  scanner.o(i.zbar_scan_y)
    i.zbar_scanner_create                    0x0800c6c6   Section        0  scanner.o(i.zbar_scanner_create)
    i.zbar_scanner_destroy                   0x0800c6e2   Section        0  scanner.o(i.zbar_scanner_destroy)
    i.zbar_scanner_flush                     0x0800c6ee   Section        0  scanner.o(i.zbar_scanner_flush)
    i.zbar_scanner_get_edge                  0x0800c73e   Section        0  scanner.o(i.zbar_scanner_get_edge)
    i.zbar_scanner_get_width                 0x0800c768   Section        0  scanner.o(i.zbar_scanner_get_width)
    i.zbar_scanner_new_scan                  0x0800c76e   Section        0  scanner.o(i.zbar_scanner_new_scan)
    i.zbar_scanner_reset                     0x0800c7b4   Section        0  scanner.o(i.zbar_scanner_reset)
    i.zbar_symbol_get_data                   0x0800c7de   Section        0  symbol.o(i.zbar_symbol_get_data)
    i.zbar_symbol_get_type                   0x0800c7e4   Section        0  symbol.o(i.zbar_symbol_get_type)
    i.zbar_symbol_next                       0x0800c7ea   Section        0  symbol.o(i.zbar_symbol_next)
    i.zbar_symbol_set_ref                    0x0800c7f6   Section        0  symbol.o(i.zbar_symbol_set_ref)
    i.zbar_utf8_to_gb18030                   0x0800c814   Section        0  qrdectxt.o(i.zbar_utf8_to_gb18030)
    .constdata                               0x0800c8fc   Section       24  malloc.o(.constdata)
    .constdata                               0x0800c914   Section       27  img_scanner.o(.constdata)
    __func__                                 0x0800c914   Data          11  img_scanner.o(.constdata)
    __func__                                 0x0800c91f   Data          16  img_scanner.o(.constdata)
    .constdata                               0x0800c92f   Section       47  bch15_5.o(.constdata)
    gf16_exp                                 0x0800c92f   Data          31  bch15_5.o(.constdata)
    gf16_log                                 0x0800c94e   Data          16  bch15_5.o(.constdata)
    .constdata                               0x0800c95e   Section        8  isaac.o(.constdata)
    SHIFT                                    0x0800c95e   Data           8  isaac.o(.constdata)
    .constdata                               0x0800c968   Section      612  qrdec.o(.constdata)
    BCH18_6_CODES                            0x0800c968   Data         136  qrdec.o(.constdata)
    QR_ALIGNMENT_SPACING                     0x0800c9f0   Data          34  qrdec.o(.constdata)
    QR_ALNUM_TABLE                           0x0800ca12   Data          45  qrdec.o(.constdata)
    QR_RS_NPAR_VALS                          0x0800ca3f   Data          71  qrdec.o(.constdata)
    QR_RS_NPAR_OFFS                          0x0800ca86   Data          40  qrdec.o(.constdata)
    QR_RS_NBLOCKS                            0x0800caae   Data         160  qrdec.o(.constdata)
    __func__                                 0x0800cb4e   Data          17  qrdec.o(.constdata)
    MASK_TESTS                               0x0800cb60   Data          64  qrdec.o(.constdata)
    MASK_COORDS                              0x0800cba0   Data          16  qrdec.o(.constdata)
    LEN_BITS                                 0x0800cbb0   Data          12  qrdec.o(.constdata)
    __func__                                 0x0800cbbc   Data          16  qrdec.o(.constdata)
    .constdata                               0x0800cbcc   Section    41804  qrdectxt.o(.constdata)
    .constdata                               0x08016f18   Section      336  ov7670.o(.constdata)
    .conststring                             0x08017068   Section      227  error.o(.conststring)
    .data                                    0x20000000   Section        2  main.o(.data)
    .data                                    0x20000002   Section        4  init.o(.data)
    fac_us                                   0x20000002   Data           1  init.o(.data)
    fac_ms                                   0x20000004   Data           2  init.o(.data)
    .data                                    0x20000008   Section       28  malloc.o(.data)
    .data                                    0x20000024   Section       56  error.o(.data)
    err_str                                  0x20000028   Data          52  error.o(.data)
    .data                                    0x2000005c   Section        1  time.o(.data)
    .data                                    0x2000005d   Section       20  stm32f10x_rcc.o(.data)
    APBAHBPrescTable                         0x2000005d   Data          16  stm32f10x_rcc.o(.data)
    ADCPrescTable                            0x2000006d   Data           4  stm32f10x_rcc.o(.data)
    .data                                    0x20000074   Section        4  stderr.o(.data)
    .data                                    0x20000078   Section        4  stdout.o(.data)
    .bss                                     0x20000080   Section    59840  malloc.o(.bss)
    .bss                                     0x2000ea40   Section       14  lcd.o(.bss)
    STACK                                    0x2000ea50   Section     4096  startup_stm32f10x_hd.o(STACK)
    .ARM.__AT_0x68000000                     0x68000000   Section    1013760  malloc.o(.ARM.__AT_0x68000000)
    .ARM.__AT_0x680F7800                     0x680f7800   Section    63360  malloc.o(.ARM.__AT_0x680F7800)
    .ARM.__AT_0x68106F80                     0x68106f80   Section    57600  main.o(.ARM.__AT_0x68106F80)

    Global Symbols

    Symbol Name                              Value     Ov Type        Size  Object(Section)

    BuildAttributes$$THM_ISAv4$P$D$K$B$S$PE$A:L22UL41UL21$X:L11$S22US41US21$IEEE1$IW$USESV6$~STKCKD$USESV7$~SHL$OSPACE$ROPI$EBA8$MICROLIB$REQ8$PRES8$EABIv2 0x00000000   Number         0  anon$$obj.o ABSOLUTE
    __ARM_use_no_argv                        0x00000000   Number         0  main.o ABSOLUTE
    _printf_a                                0x00000000   Number         0  stubs.o ABSOLUTE
    _printf_c                                0x00000000   Number         0  stubs.o ABSOLUTE
    _printf_charcount                        0x00000000   Number         0  stubs.o ABSOLUTE
    _printf_d                                0x00000000   Number         0  stubs.o ABSOLUTE
    _printf_e                                0x00000000   Number         0  stubs.o ABSOLUTE
    _printf_f                                0x00000000   Number         0  stubs.o ABSOLUTE
    _printf_flags                            0x00000000   Number         0  stubs.o ABSOLUTE
    _printf_fp_dec                           0x00000000   Number         0  stubs.o ABSOLUTE
    _printf_fp_hex                           0x00000000   Number         0  stubs.o ABSOLUTE
    _printf_g                                0x00000000   Number         0  stubs.o ABSOLUTE
    _printf_i                                0x00000000   Number         0  stubs.o ABSOLUTE
    _printf_int_dec                          0x00000000   Number         0  stubs.o ABSOLUTE
    _printf_l                                0x00000000   Number         0  stubs.o ABSOLUTE
    _printf_lc                               0x00000000   Number         0  stubs.o ABSOLUTE
    _printf_ll                               0x00000000   Number         0  stubs.o ABSOLUTE
    _printf_lld                              0x00000000   Number         0  stubs.o ABSOLUTE
    _printf_lli                              0x00000000   Number         0  stubs.o ABSOLUTE
    _printf_llo                              0x00000000   Number         0  stubs.o ABSOLUTE
    _printf_llu                              0x00000000   Number         0  stubs.o ABSOLUTE
    _printf_llx                              0x00000000   Number         0  stubs.o ABSOLUTE
    _printf_longlong_dec                     0x00000000   Number         0  stubs.o ABSOLUTE
    _printf_longlong_hex                     0x00000000   Number         0  stubs.o ABSOLUTE
    _printf_longlong_oct                     0x00000000   Number         0  stubs.o ABSOLUTE
    _printf_ls                               0x00000000   Number         0  stubs.o ABSOLUTE
    _printf_mbtowc                           0x00000000   Number         0  stubs.o ABSOLUTE
    _printf_n                                0x00000000   Number         0  stubs.o ABSOLUTE
    _printf_o                                0x00000000   Number         0  stubs.o ABSOLUTE
    _printf_p                                0x00000000   Number         0  stubs.o ABSOLUTE
    _printf_percent                          0x00000000   Number         0  stubs.o ABSOLUTE
    _printf_pre_padding                      0x00000000   Number         0  stubs.o ABSOLUTE
    _printf_return_value                     0x00000000   Number         0  stubs.o ABSOLUTE
    _printf_s                                0x00000000   Number         0  stubs.o ABSOLUTE
    _printf_sizespec                         0x00000000   Number         0  stubs.o ABSOLUTE
    _printf_str                              0x00000000   Number         0  stubs.o ABSOLUTE
    _printf_truncate_signed                  0x00000000   Number         0  stubs.o ABSOLUTE
    _printf_truncate_unsigned                0x00000000   Number         0  stubs.o ABSOLUTE
    _printf_u                                0x00000000   Number         0  stubs.o ABSOLUTE
    _printf_wc                               0x00000000   Number         0  stubs.o ABSOLUTE
    _printf_wctomb                           0x00000000   Number         0  stubs.o ABSOLUTE
    _printf_widthprec                        0x00000000   Number         0  stubs.o ABSOLUTE
    _printf_x                                0x00000000   Number         0  stubs.o ABSOLUTE
    __arm_fini_                               - Undefined Weak Reference
    __cpp_initialize__aeabi_                  - Undefined Weak Reference
    __cxa_finalize                            - Undefined Weak Reference
    __decompress                              - Undefined Weak Reference
    _clock_init                               - Undefined Weak Reference
    _microlib_exit                            - Undefined Weak Reference
    __Vectors_Size                           0x00000130   Number         0  startup_stm32f10x_hd.o ABSOLUTE
    __Vectors                                0x08000000   Data           4  startup_stm32f10x_hd.o(RESET)
    __Vectors_End                            0x08000130   Data           0  startup_stm32f10x_hd.o(RESET)
    __main                                   0x08000131   Thumb Code     0  entry.o(.ARM.Collect$$$$00000000)
    _main_stk                                0x08000131   Thumb Code     0  entry2.o(.ARM.Collect$$$$00000001)
    _main_scatterload                        0x08000135   Thumb Code     0  entry5.o(.ARM.Collect$$$$00000004)
    __main_after_scatterload                 0x08000139   Thumb Code     0  entry5.o(.ARM.Collect$$$$00000004)
    _main_clock                              0x08000139   Thumb Code     0  entry7b.o(.ARM.Collect$$$$00000008)
    _main_cpp_init                           0x08000139   Thumb Code     0  entry8b.o(.ARM.Collect$$$$0000000A)
    _main_init                               0x08000139   Thumb Code     0  entry9a.o(.ARM.Collect$$$$0000000B)
    __rt_lib_shutdown_fini                   0x08000141   Thumb Code     0  entry12b.o(.ARM.Collect$$$$0000000E)
    __rt_final_cpp                           0x08000145   Thumb Code     0  entry10a.o(.ARM.Collect$$$$0000000F)
    __rt_final_exit                          0x08000145   Thumb Code     0  entry11a.o(.ARM.Collect$$$$00000011)
    Reset_Handler                            0x08000149   Thumb Code     8  startup_stm32f10x_hd.o(.text)
    NMI_Handler                              0x08000151   Thumb Code     2  startup_stm32f10x_hd.o(.text)
    HardFault_Handler                        0x08000153   Thumb Code     2  startup_stm32f10x_hd.o(.text)
    MemManage_Handler                        0x08000155   Thumb Code     2  startup_stm32f10x_hd.o(.text)
    BusFault_Handler                         0x08000157   Thumb Code     2  startup_stm32f10x_hd.o(.text)
    UsageFault_Handler                       0x08000159   Thumb Code     2  startup_stm32f10x_hd.o(.text)
    SVC_Handler                              0x0800015b   Thumb Code     2  startup_stm32f10x_hd.o(.text)
    DebugMon_Handler                         0x0800015d   Thumb Code     2  startup_stm32f10x_hd.o(.text)
    PendSV_Handler                           0x0800015f   Thumb Code     2  startup_stm32f10x_hd.o(.text)
    SysTick_Handler                          0x08000161   Thumb Code     2  startup_stm32f10x_hd.o(.text)
    ADC1_2_IRQHandler                        0x08000163   Thumb Code     0  startup_stm32f10x_hd.o(.text)
    ADC3_IRQHandler                          0x08000163   Thumb Code     0  startup_stm32f10x_hd.o(.text)
    CAN1_RX1_IRQHandler                      0x08000163   Thumb Code     0  startup_stm32f10x_hd.o(.text)
    CAN1_SCE_IRQHandler                      0x08000163   Thumb Code     0  startup_stm32f10x_hd.o(.text)
    EXTI0_IRQHandler                         0x08000163   Thumb Code     0  startup_stm32f10x_hd.o(.text)
    EXTI15_10_IRQHandler                     0x08000163   Thumb Code     0  startup_stm32f10x_hd.o(.text)
    EXTI1_IRQHandler                         0x08000163   Thumb Code     0  startup_stm32f10x_hd.o(.text)
    EXTI2_IRQHandler                         0x08000163   Thumb Code     0  startup_stm32f10x_hd.o(.text)
    EXTI3_IRQHandler                         0x08000163   Thumb Code     0  startup_stm32f10x_hd.o(.text)
    EXTI4_IRQHandler                         0x08000163   Thumb Code     0  startup_stm32f10x_hd.o(.text)
    FLASH_IRQHandler                         0x08000163   Thumb Code     0  startup_stm32f10x_hd.o(.text)
    FSMC_IRQHandler                          0x08000163   Thumb Code     0  startup_stm32f10x_hd.o(.text)
    I2C1_ER_IRQHandler                       0x08000163   Thumb Code     0  startup_stm32f10x_hd.o(.text)
    I2C1_EV_IRQHandler                       0x08000163   Thumb Code     0  startup_stm32f10x_hd.o(.text)
    I2C2_ER_IRQHandler                       0x08000163   Thumb Code     0  startup_stm32f10x_hd.o(.text)
    I2C2_EV_IRQHandler                       0x08000163   Thumb Code     0  startup_stm32f10x_hd.o(.text)
    PVD_IRQHandler                           0x08000163   Thumb Code     0  startup_stm32f10x_hd.o(.text)
    RCC_IRQHandler                           0x08000163   Thumb Code     0  startup_stm32f10x_hd.o(.text)
    RTCAlarm_IRQHandler                      0x08000163   Thumb Code     0  startup_stm32f10x_hd.o(.text)
    RTC_IRQHandler                           0x08000163   Thumb Code     0  startup_stm32f10x_hd.o(.text)
    SDIO_IRQHandler                          0x08000163   Thumb Code     0  startup_stm32f10x_hd.o(.text)
    SPI1_IRQHandler                          0x08000163   Thumb Code     0  startup_stm32f10x_hd.o(.text)
    SPI2_IRQHandler                          0x08000163   Thumb Code     0  startup_stm32f10x_hd.o(.text)
    SPI3_IRQHandler                          0x08000163   Thumb Code     0  startup_stm32f10x_hd.o(.text)
    TAMPER_IRQHandler                        0x08000163   Thumb Code     0  startup_stm32f10x_hd.o(.text)
    TIM1_BRK_IRQHandler                      0x08000163   Thumb Code     0  startup_stm32f10x_hd.o(.text)
    TIM1_CC_IRQHandler                       0x08000163   Thumb Code     0  startup_stm32f10x_hd.o(.text)
    TIM1_TRG_COM_IRQHandler                  0x08000163   Thumb Code     0  startup_stm32f10x_hd.o(.text)
    TIM1_UP_IRQHandler                       0x08000163   Thumb Code     0  startup_stm32f10x_hd.o(.text)
    TIM2_IRQHandler                          0x08000163   Thumb Code     0  startup_stm32f10x_hd.o(.text)
    TIM3_IRQHandler                          0x08000163   Thumb Code     0  startup_stm32f10x_hd.o(.text)
    TIM5_IRQHandler                          0x08000163   Thumb Code     0  startup_stm32f10x_hd.o(.text)
    TIM6_IRQHandler                          0x08000163   Thumb Code     0  startup_stm32f10x_hd.o(.text)
    TIM7_IRQHandler                          0x08000163   Thumb Code     0  startup_stm32f10x_hd.o(.text)
    TIM8_BRK_IRQHandler                      0x08000163   Thumb Code     0  startup_stm32f10x_hd.o(.text)
    TIM8_CC_IRQHandler                       0x08000163   Thumb Code     0  startup_stm32f10x_hd.o(.text)
    TIM8_TRG_COM_IRQHandler                  0x08000163   Thumb Code     0  startup_stm32f10x_hd.o(.text)
    TIM8_UP_IRQHandler                       0x08000163   Thumb Code     0  startup_stm32f10x_hd.o(.text)
    UART4_IRQHandler                         0x08000163   Thumb Code     0  startup_stm32f10x_hd.o(.text)
    UART5_IRQHandler                         0x08000163   Thumb Code     0  startup_stm32f10x_hd.o(.text)
    USART1_IRQHandler                        0x08000163   Thumb Code     0  startup_stm32f10x_hd.o(.text)
    USART2_IRQHandler                        0x08000163   Thumb Code     0  startup_stm32f10x_hd.o(.text)
    USART3_IRQHandler                        0x08000163   Thumb Code     0  startup_stm32f10x_hd.o(.text)
    USBWakeUp_IRQHandler                     0x08000163   Thumb Code     0  startup_stm32f10x_hd.o(.text)
    USB_HP_CAN1_TX_IRQHandler                0x08000163   Thumb Code     0  startup_stm32f10x_hd.o(.text)
    USB_LP_CAN1_RX0_IRQHandler               0x08000163   Thumb Code     0  startup_stm32f10x_hd.o(.text)
    WWDG_IRQHandler                          0x08000163   Thumb Code     0  startup_stm32f10x_hd.o(.text)
    __aeabi_ldivmod                          0x0800016d   Thumb Code    98  ldiv.o(.text)
    __aeabi_lasr                             0x080001cf   Thumb Code    36  llsshr.o(.text)
    _ll_sshift_r                             0x080001cf   Thumb Code     0  llsshr.o(.text)
    qsort                                    0x080001f3   Thumb Code   156  qsort.o(.text)
    ___aeabi_memcpy8$move                    0x0800028f   Thumb Code     0  memmovea.o(.text)
    __aeabi_memcpy                           0x0800028f   Thumb Code    64  memmovea.o(.text)
    __aeabi_memcpy4                          0x0800028f   Thumb Code     0  memmovea.o(.text)
    __aeabi_memmove                          0x0800028f   Thumb Code     0  memmovea.o(.text)
    __aeabi_memmove4                         0x0800028f   Thumb Code     0  memmovea.o(.text)
    __aeabi_memmove8                         0x0800028f   Thumb Code     0  memmovea.o(.text)
    strcmp                                   0x080002cf   Thumb Code    28  strcmp.o(.text)
    memchr                                   0x080002eb   Thumb Code    20  memchr.o(.text)
    memcmp                                   0x080002ff   Thumb Code    26  memcmp.o(.text)
    __aeabi_uldivmod                         0x08000319   Thumb Code    98  uldiv.o(.text)
    __scatterload                            0x0800037d   Thumb Code    28  init.o(.text)
    __scatterload_rt2                        0x0800037d   Thumb Code     0  init.o(.text)
    __aeabi_llsl                             0x080003a1   Thumb Code    30  llshl.o(.text)
    _ll_shift_l                              0x080003a1   Thumb Code     0  llshl.o(.text)
    __aeabi_llsr                             0x080003bf   Thumb Code    32  llushr.o(.text)
    _ll_ushift_r                             0x080003bf   Thumb Code     0  llushr.o(.text)
    Buzzle_Init                              0x080003e1   Thumb Code    46  buzzle.o(i.Buzzle_Init)
    DMA1_Channel1_Event                      0x08000415   Thumb Code     2  dma_stm32f10x.o(i.DMA1_Channel1_Event)
    DMA1_Channel1_IRQHandler                 0x08000419   Thumb Code    22  dma_stm32f10x.o(i.DMA1_Channel1_IRQHandler)
    DMA1_Channel2_Event                      0x08000435   Thumb Code     2  dma_stm32f10x.o(i.DMA1_Channel2_Event)
    DMA1_Channel2_IRQHandler                 0x08000439   Thumb Code    24  dma_stm32f10x.o(i.DMA1_Channel2_IRQHandler)
    DMA1_Channel3_Event                      0x08000455   Thumb Code     2  dma_stm32f10x.o(i.DMA1_Channel3_Event)
    DMA1_Channel3_IRQHandler                 0x08000459   Thumb Code    24  dma_stm32f10x.o(i.DMA1_Channel3_IRQHandler)
    DMA1_Channel4_Event                      0x08000475   Thumb Code     2  dma_stm32f10x.o(i.DMA1_Channel4_Event)
    DMA1_Channel4_IRQHandler                 0x08000479   Thumb Code    24  dma_stm32f10x.o(i.DMA1_Channel4_IRQHandler)
    DMA1_Channel5_Event                      0x08000495   Thumb Code     2  dma_stm32f10x.o(i.DMA1_Channel5_Event)
    DMA1_Channel5_IRQHandler                 0x08000499   Thumb Code    24  dma_stm32f10x.o(i.DMA1_Channel5_IRQHandler)
    DMA1_Channel6_Event                      0x080004b5   Thumb Code     2  dma_stm32f10x.o(i.DMA1_Channel6_Event)
    DMA1_Channel6_IRQHandler                 0x080004b9   Thumb Code    24  dma_stm32f10x.o(i.DMA1_Channel6_IRQHandler)
    DMA1_Channel7_Event                      0x080004d5   Thumb Code     2  dma_stm32f10x.o(i.DMA1_Channel7_Event)
    DMA1_Channel7_IRQHandler                 0x080004d9   Thumb Code    24  dma_stm32f10x.o(i.DMA1_Channel7_IRQHandler)
    DMA2_Channel1_Event                      0x080004f5   Thumb Code     2  dma_stm32f10x.o(i.DMA2_Channel1_Event)
    DMA2_Channel1_IRQHandler                 0x080004f9   Thumb Code    24  dma_stm32f10x.o(i.DMA2_Channel1_IRQHandler)
    DMA2_Channel2_Event                      0x08000515   Thumb Code     2  dma_stm32f10x.o(i.DMA2_Channel2_Event)
    DMA2_Channel2_IRQHandler                 0x08000519   Thumb Code    26  dma_stm32f10x.o(i.DMA2_Channel2_IRQHandler)
    DMA2_Channel3_Event                      0x08000539   Thumb Code     2  dma_stm32f10x.o(i.DMA2_Channel3_Event)
    DMA2_Channel3_IRQHandler                 0x0800053d   Thumb Code    26  dma_stm32f10x.o(i.DMA2_Channel3_IRQHandler)
    DMA2_Channel4_5_IRQHandler               0x0800055d   Thumb Code    52  dma_stm32f10x.o(i.DMA2_Channel4_5_IRQHandler)
    DMA2_Channel4_Event                      0x08000595   Thumb Code     2  dma_stm32f10x.o(i.DMA2_Channel4_Event)
    DMA2_Channel5_Event                      0x08000597   Thumb Code     2  dma_stm32f10x.o(i.DMA2_Channel5_Event)
    EXTI7_Init                               0x08000599   Thumb Code    76  main.o(i.EXTI7_Init)
    EXTI9_5_IRQHandler                       0x080005e5   Thumb Code    50  main.o(i.EXTI9_5_IRQHandler)
    EXTI_ClearITPendingBit                   0x08000629   Thumb Code     6  my_stm32f10x_exti.o(i.EXTI_ClearITPendingBit)
    EXTI_GetITStatus                         0x08000635   Thumb Code    34  my_stm32f10x_exti.o(i.EXTI_GetITStatus)
    EXTI_Init                                0x0800065d   Thumb Code   142  my_stm32f10x_exti.o(i.EXTI_Init)
    FSMC_NORSRAMCmd                          0x080006f1   Thumb Code    46  stm32f10x_fsmc.o(i.FSMC_NORSRAMCmd)
    FSMC_NORSRAMInit                         0x08000725   Thumb Code   230  stm32f10x_fsmc.o(i.FSMC_NORSRAMInit)
    FSMC_SRAM_Init                           0x0800080d   Thumb Code   226  sram.o(i.FSMC_SRAM_Init)
    GPIO_Config                              0x08000901   Thumb Code    46  init.o(i.GPIO_Config)
    GPIO_EXTILineConfig                      0x08000935   Thumb Code    60  stm32f10x_gpio.o(i.GPIO_EXTILineConfig)
    GPIO_Init                                0x08000975   Thumb Code   278  stm32f10x_gpio.o(i.GPIO_Init)
    GPIO_ResetBits                           0x08000a8b   Thumb Code     4  stm32f10x_gpio.o(i.GPIO_ResetBits)
    GPIO_SetBits                             0x08000a8f   Thumb Code     4  stm32f10x_gpio.o(i.GPIO_SetBits)
    LCD_Clear                                0x08000a95   Thumb Code    88  lcd.o(i.LCD_Clear)
    LCD_GPIOInit                             0x08000af5   Thumb Code    40  lcd.o(i.LCD_GPIOInit)
    LCD_Init                                 0x08000b21   Thumb Code   588  lcd.o(i.LCD_Init)
    LCD_RESET                                0x08000d71   Thumb Code    34  lcd.o(i.LCD_RESET)
    LCD_SetWindows                           0x08000d99   Thumb Code    84  lcd.o(i.LCD_SetWindows)
    LCD_WR_DATA                              0x08000df1   Thumb Code    38  lcd.o(i.LCD_WR_DATA)
    LCD_WR_REG                               0x08000e21   Thumb Code    36  lcd.o(i.LCD_WR_REG)
    LCD_WriteRAM_Prepare                     0x08000e4d   Thumb Code    12  lcd.o(i.LCD_WriteRAM_Prepare)
    LCD_WriteReg                             0x08000e5d   Thumb Code    20  lcd.o(i.LCD_WriteReg)
    LCD_direction                            0x08000e71   Thumb Code   128  lcd.o(i.LCD_direction)
    LED0_ON                                  0x08000ef5   Thumb Code    12  led.o(i.LED0_ON)
    LED4_OFF                                 0x08000f05   Thumb Code    12  led.o(i.LED4_OFF)
    LED4_ON                                  0x08000f15   Thumb Code    12  led.o(i.LED4_ON)
    LED5_OFF                                 0x08000f25   Thumb Code    12  led.o(i.LED5_OFF)
    LED5_ON                                  0x08000f35   Thumb Code    12  led.o(i.LED5_ON)
    LED_Init                                 0x08000f45   Thumb Code    46  led.o(i.LED_Init)
    Lcd_WriteData_16Bit                      0x08000f79   Thumb Code    46  lcd.o(i.Lcd_WriteData_16Bit)
    NVIC_Init                                0x08000fb1   Thumb Code   100  misc.o(i.NVIC_Init)
    OV7670_Brightness                        0x08001021   Thumb Code    50  ov7670.o(i.OV7670_Brightness)
    OV7670_Color_Saturation                  0x08001053   Thumb Code   122  ov7670.o(i.OV7670_Color_Saturation)
    OV7670_Contrast                          0x080010cd   Thumb Code    50  ov7670.o(i.OV7670_Contrast)
    OV7670_Init                              0x08001101   Thumb Code   232  ov7670.o(i.OV7670_Init)
    OV7670_Light_Mode                        0x08001201   Thumb Code    92  ov7670.o(i.OV7670_Light_Mode)
    OV7670_Special_Effects                   0x0800125d   Thumb Code   106  ov7670.o(i.OV7670_Special_Effects)
    RCC_AHBPeriphClockCmd                    0x080012c9   Thumb Code    26  stm32f10x_rcc.o(i.RCC_AHBPeriphClockCmd)
    RCC_APB1PeriphClockCmd                   0x080012e9   Thumb Code    26  stm32f10x_rcc.o(i.RCC_APB1PeriphClockCmd)
    RCC_APB2PeriphClockCmd                   0x08001309   Thumb Code    26  stm32f10x_rcc.o(i.RCC_APB2PeriphClockCmd)
    RCC_GetClocksFreq                        0x08001329   Thumb Code   192  stm32f10x_rcc.o(i.RCC_GetClocksFreq)
    SCCB_Init                                0x080013fd   Thumb Code    76  sccb.o(i.SCCB_Init)
    SCCB_No_Ack                              0x0800144d   Thumb Code    56  sccb.o(i.SCCB_No_Ack)
    SCCB_RD_Byte                             0x0800148d   Thumb Code    68  sccb.o(i.SCCB_RD_Byte)
    SCCB_RD_Reg                              0x080014d9   Thumb Code    78  sccb.o(i.SCCB_RD_Reg)
    SCCB_SDA_IN                              0x08001529   Thumb Code    24  sccb.o(i.SCCB_SDA_IN)
    SCCB_SDA_OUT                             0x08001545   Thumb Code    30  sccb.o(i.SCCB_SDA_OUT)
    SCCB_Start                               0x08001569   Thumb Code    42  sccb.o(i.SCCB_Start)
    SCCB_Stop                                0x0800159d   Thumb Code    42  sccb.o(i.SCCB_Stop)
    SCCB_WR_Byte                             0x080015d1   Thumb Code   122  sccb.o(i.SCCB_WR_Byte)
    SCCB_WR_Reg                              0x08001655   Thumb Code    62  sccb.o(i.SCCB_WR_Reg)
    SPI2_Init                                0x08001695   Thumb Code   148  spi.o(i.SPI2_Init)
    SPI_Cmd                                  0x08001731   Thumb Code    24  my_stm32f10x_spi.o(i.SPI_Cmd)
    SPI_Init                                 0x08001749   Thumb Code    60  my_stm32f10x_spi.o(i.SPI_Init)
    SPI_WriteByte                            0x08001785   Thumb Code    34  spi.o(i.SPI_WriteByte)
    Serial_SendByte2                         0x080017a9   Thumb Code    28  init.o(i.Serial_SendByte2)
    Serial_SendByte4                         0x080017c9   Thumb Code    28  init.o(i.Serial_SendByte4)
    Serial_SendString2                       0x080017e9   Thumb Code    26  init.o(i.Serial_SendString2)
    Serial_SendString4                       0x08001803   Thumb Code    26  init.o(i.Serial_SendString4)
    SysTick_CLKSourceConfig                  0x08001905   Thumb Code    40  misc.o(i.SysTick_CLKSourceConfig)
    SystemInit                               0x0800192d   Thumb Code    78  system_stm32f10x.o(i.SystemInit)
    Systick_Config                           0x0800198d   Thumb Code    52  init.o(i.Systick_Config)
    TIM4_IRQHandler                          0x080019c9   Thumb Code    38  time.o(i.TIM4_IRQHandler)
    TIM_ClearITPendingBit                    0x08001a09   Thumb Code     6  stm32f10x_tim.o(i.TIM_ClearITPendingBit)
    TIM_GetITStatus                          0x08001a0f   Thumb Code    34  stm32f10x_tim.o(i.TIM_GetITStatus)
    UART4_Init                               0x08001a31   Thumb Code   128  init.o(i.UART4_Init)
    USART2_Init                              0x08001ab9   Thumb Code   124  init.o(i.USART2_Init)
    USART_Cmd                                0x08001b3d   Thumb Code    24  stm32f10x_usart.o(i.USART_Cmd)
    USART_Config                             0x08001b55   Thumb Code   116  init.o(i.USART_Config)
    USART_GetFlagStatus                      0x08001bd1   Thumb Code    26  stm32f10x_usart.o(i.USART_GetFlagStatus)
    USART_Init                               0x08001bed   Thumb Code   210  stm32f10x_usart.o(i.USART_Init)
    USART_SendData                           0x08001cc5   Thumb Code     8  stm32f10x_usart.o(i.USART_SendData)
    Zbar_Test                                0x08001ccd   Thumb Code   204  main.o(i.Zbar_Test)
    Zbar_calloc                              0x08001de1   Thumb Code    36  zbar_config.o(i.Zbar_calloc)
    Zbar_free                                0x08001e05   Thumb Code    14  zbar_config.o(i.Zbar_free)
    Zbar_malloc                              0x08001e13   Thumb Code    14  zbar_config.o(i.Zbar_malloc)
    Zbar_memcpy                              0x08001e21   Thumb Code    20  zbar_config.o(i.Zbar_memcpy)
    Zbar_memset                              0x08001e35   Thumb Code    20  zbar_config.o(i.Zbar_memset)
    Zbar_realloc                             0x08001e49   Thumb Code    18  zbar_config.o(i.Zbar_realloc)
    __0fprintf$8                             0x08001e5d   Thumb Code    22  printf8.o(i.__0fprintf$8)
    __1fprintf$8                             0x08001e5d   Thumb Code     0  printf8.o(i.__0fprintf$8)
    __2fprintf                               0x08001e5d   Thumb Code     0  printf8.o(i.__0fprintf$8)
    __0printf$8                              0x08001e79   Thumb Code    22  printf8.o(i.__0printf$8)
    __1printf$8                              0x08001e79   Thumb Code     0  printf8.o(i.__0printf$8)
    __2printf                                0x08001e79   Thumb Code     0  printf8.o(i.__0printf$8)
    __scatterload_copy                       0x08001e99   Thumb Code    14  handlers.o(i.__scatterload_copy)
    __scatterload_null                       0x08001ea7   Thumb Code     2  handlers.o(i.__scatterload_null)
    __scatterload_zeroinit                   0x08001ea9   Thumb Code    14  handlers.o(i.__scatterload_zeroinit)
    _zbar_decoder_get_qr_finder_line         0x0800230f   Thumb Code     8  qr_finder.o(i._zbar_decoder_get_qr_finder_line)
    _zbar_find_qr                            0x08002317   Thumb Code   268  qr_finder.o(i._zbar_find_qr)
    _zbar_image_free                         0x08002423   Thumb Code    30  image.o(i._zbar_image_free)
    _zbar_image_scanner_add_sym              0x0800246f   Thumb Code    96  img_scanner.o(i._zbar_image_scanner_add_sym)
    _zbar_image_scanner_alloc_sym            0x080024cf   Thumb Code   216  img_scanner.o(i._zbar_image_scanner_alloc_sym)
    _zbar_image_scanner_recycle_syms         0x080025a7   Thumb Code   172  img_scanner.o(i._zbar_image_scanner_recycle_syms)
    _zbar_qr_create                          0x08002653   Thumb Code    24  qrdec.o(i._zbar_qr_create)
    _zbar_qr_decode                          0x0800266d   Thumb Code   246  qrdec.o(i._zbar_qr_decode)
    _zbar_qr_destroy                         0x08002791   Thumb Code    78  qrdec.o(i._zbar_qr_destroy)
    _zbar_qr_found_line                      0x0800280d   Thumb Code    86  qrdec.o(i._zbar_qr_found_line)
    _zbar_qr_reset                           0x08002863   Thumb Code    16  qrdec.o(i._zbar_qr_reset)
    _zbar_refcnt_init                        0x0800288b   Thumb Code     2  refcnt.o(i._zbar_refcnt_init)
    _zbar_symbol_free                        0x0800288d   Thumb Code    54  symbol.o(i._zbar_symbol_free)
    _zbar_symbol_set_create                  0x080028e1   Thumb Code    24  symbol.o(i._zbar_symbol_set_create)
    _zbar_symbol_set_free                    0x080028f9   Thumb Code    40  symbol.o(i._zbar_symbol_set_free)
    bch15_5_correct                          0x08002ab5   Thumb Code    82  bch15_5.o(i.bch15_5_correct)
    bch15_5_encode                           0x08002b07   Thumb Code    70  bch15_5.o(i.bch15_5_encode)
    buzzle6_OFF                              0x08002bc1   Thumb Code    12  led.o(i.buzzle6_OFF)
    buzzle6_ON                               0x08002bd1   Thumb Code    12  led.o(i.buzzle6_ON)
    camera_refresh                           0x08002d39   Thumb Code   230  main.o(i.camera_refresh)
    delay_ms                                 0x08002ead   Thumb Code    72  init.o(i.delay_ms)
    delay_us                                 0x08002ef9   Thumb Code    72  init.o(i.delay_us)
    fputc                                    0x080030d1   Thumb Code    24  init.o(i.fputc)
    isaac_init                               0x08003165   Thumb Code   330  isaac.o(i.isaac_init)
    isaac_next_uint                          0x08003371   Thumb Code    42  isaac.o(i.isaac_next_uint)
    isaac_next_uint32                        0x0800339b   Thumb Code    28  isaac.o(i.isaac_next_uint32)
    main                                     0x080035d9   Thumb Code   200  main.o(i.main)
    my_mem_free                              0x080036a9   Thumb Code    96  malloc.o(i.my_mem_free)
    my_mem_init                              0x08003715   Thumb Code    54  malloc.o(i.my_mem_init)
    my_mem_malloc                            0x08003759   Thumb Code   156  malloc.o(i.my_mem_malloc)
    my_mem_perused                           0x08003801   Thumb Code    54  malloc.o(i.my_mem_perused)
    myfree                                   0x08003841   Thumb Code    30  malloc.o(i.myfree)
    mymalloc                                 0x08003865   Thumb Code    34  malloc.o(i.mymalloc)
    mymemcpy                                 0x0800388d   Thumb Code    26  malloc.o(i.mymemcpy)
    mymemset                                 0x080038a7   Thumb Code    20  malloc.o(i.mymemset)
    myrealloc                                0x080038bd   Thumb Code    64  malloc.o(i.myrealloc)
    qr_binarize                              0x08004311   Thumb Code   644  binarize.o(i.qr_binarize)
    qr_code_data_list_clear                  0x08004665   Thumb Code    44  qrdec.o(i.qr_code_data_list_clear)
    qr_code_data_list_extract_text           0x08004691   Thumb Code  1292  qrdectxt.o(i.qr_code_data_list_extract_text)
    qr_code_data_list_init                   0x08004b9d   Thumb Code    10  qrdec.o(i.qr_code_data_list_init)
    qr_ihypot                                0x08009191   Thumb Code   264  util.o(i.qr_ihypot)
    qr_ilog                                  0x0800929d   Thumb Code    92  util.o(i.qr_ilog)
    qr_isqrt                                 0x08009391   Thumb Code    44  util.o(i.qr_isqrt)
    qr_reader_match_centers                  0x08009b9b   Thumb Code   488  qrdec.o(i.qr_reader_match_centers)
    rs_correct                               0x0800b065   Thumb Code   370  rs.o(i.rs_correct)
    rs_gf256_init                            0x0800b3ed   Thumb Code    68  rs.o(i.rs_gf256_init)
    zbar_decode_width                        0x0800bbb9   Thumb Code   100  decoder.o(i.zbar_decode_width)
    zbar_decoder_create                      0x0800bc1d   Thumb Code    56  decoder.o(i.zbar_decoder_create)
    zbar_decoder_destroy                     0x0800bc95   Thumb Code    22  decoder.o(i.zbar_decoder_destroy)
    zbar_decoder_get_data                    0x0800bcab   Thumb Code     6  decoder.o(i.zbar_decoder_get_data)
    zbar_decoder_get_data_length             0x0800bcb1   Thumb Code     6  decoder.o(i.zbar_decoder_get_data_length)
    zbar_decoder_get_type                    0x0800bcb7   Thumb Code     8  decoder.o(i.zbar_decoder_get_type)
    zbar_decoder_get_userdata                0x0800bcbf   Thumb Code     6  decoder.o(i.zbar_decoder_get_userdata)
    zbar_decoder_new_scan                    0x0800bcc5   Thumb Code    30  decoder.o(i.zbar_decoder_new_scan)
    zbar_decoder_reset                       0x0800bce3   Thumb Code    28  decoder.o(i.zbar_decoder_reset)
    zbar_decoder_set_config                  0x0800bcff   Thumb Code   198  decoder.o(i.zbar_decoder_set_config)
    zbar_decoder_set_handler                 0x0800bdc5   Thumb Code     8  decoder.o(i.zbar_decoder_set_handler)
    zbar_decoder_set_userdata                0x0800bdcd   Thumb Code     4  decoder.o(i.zbar_decoder_set_userdata)
    zbar_get_symbol_name                     0x0800bdd1   Thumb Code   102  symbol.o(i.zbar_get_symbol_name)
    zbar_image_create                        0x0800be9d   Thumb Code    34  image.o(i.zbar_image_create)
    zbar_image_destroy                       0x0800bebf   Thumb Code    16  image.o(i.zbar_image_destroy)
    zbar_image_first_symbol                  0x0800becf   Thumb Code    16  image.o(i.zbar_image_first_symbol)
    zbar_image_free_data                     0x0800bee1   Thumb Code    82  image.o(i.zbar_image_free_data)
    zbar_image_scanner_create                0x0800bf39   Thumb Code   102  img_scanner.o(i.zbar_image_scanner_create)
    zbar_image_scanner_destroy               0x0800bfc5   Thumb Code   132  img_scanner.o(i.zbar_image_scanner_destroy)
    zbar_image_scanner_recycle_image         0x0800c049   Thumb Code   100  img_scanner.o(i.zbar_image_scanner_recycle_image)
    zbar_image_scanner_set_config            0x0800c0ad   Thumb Code   118  img_scanner.o(i.zbar_image_scanner_set_config)
    zbar_image_set_data                      0x0800c123   Thumb Code    28  image.o(i.zbar_image_set_data)
    zbar_image_set_format                    0x0800c13f   Thumb Code     4  image.o(i.zbar_image_set_format)
    zbar_image_set_size                      0x0800c143   Thumb Code     6  image.o(i.zbar_image_set_size)
    zbar_scan_image                          0x0800c149   Thumb Code   852  img_scanner.o(i.zbar_scan_image)
    zbar_scan_y                              0x0800c521   Thumb Code   422  scanner.o(i.zbar_scan_y)
    zbar_scanner_create                      0x0800c6c7   Thumb Code    28  scanner.o(i.zbar_scanner_create)
    zbar_scanner_destroy                     0x0800c6e3   Thumb Code    12  scanner.o(i.zbar_scanner_destroy)
    zbar_scanner_flush                       0x0800c6ef   Thumb Code    80  scanner.o(i.zbar_scanner_flush)
    zbar_scanner_get_edge                    0x0800c73f   Thumb Code    42  scanner.o(i.zbar_scanner_get_edge)
    zbar_scanner_get_width                   0x0800c769   Thumb Code     6  scanner.o(i.zbar_scanner_get_width)
    zbar_scanner_new_scan                    0x0800c76f   Thumb Code    70  scanner.o(i.zbar_scanner_new_scan)
    zbar_scanner_reset                       0x0800c7b5   Thumb Code    42  scanner.o(i.zbar_scanner_reset)
    zbar_symbol_get_data                     0x0800c7df   Thumb Code     6  symbol.o(i.zbar_symbol_get_data)
    zbar_symbol_get_type                     0x0800c7e5   Thumb Code     6  symbol.o(i.zbar_symbol_get_type)
    zbar_symbol_next                         0x0800c7eb   Thumb Code    12  symbol.o(i.zbar_symbol_next)
    zbar_symbol_set_ref                      0x0800c7f7   Thumb Code    30  symbol.o(i.zbar_symbol_set_ref)
    zbar_utf8_to_gb18030                     0x0800c815   Thumb Code   228  qrdectxt.o(i.zbar_utf8_to_gb18030)
    memtblsize                               0x0800c8fc   Data           8  malloc.o(.constdata)
    memblksize                               0x0800c904   Data           8  malloc.o(.constdata)
    memsize                                  0x0800c90c   Data           8  malloc.o(.constdata)
    unicode_to_gb18030_table1                0x0800cbcc   Data       41804  qrdectxt.o(.constdata)
    ov7670_init_reg_tbl                      0x08016f18   Data         336  ov7670.o(.constdata)
    Region$$Table$$Base                      0x0801714c   Number         0  anon$$obj.o(Region$$Table)
    Region$$Table$$Limit                     0x0801716c   Number         0  anon$$obj.o(Region$$Table)
    colorQR                                  0x20000000   Data           1  main.o(.data)
    ov_sta                                   0x20000001   Data           1  main.o(.data)
    malloc_cortol                            0x20000008   Data          28  malloc.o(.data)
    _zbar_verbosity                          0x20000024   Data           4  error.o(.data)
    ov_frame                                 0x2000005c   Data           1  time.o(.data)
    __stderr                                 0x20000074   Data           4  stderr.o(.data)
    __stdout                                 0x20000078   Data           4  stdout.o(.data)
    mem1base                                 0x20000080   Data       56320  malloc.o(.bss)
    mem1mapbase                              0x2000dc80   Data        3520  malloc.o(.bss)
    lcddev                                   0x2000ea40   Data          14  lcd.o(.bss)
    __initial_sp                             0x2000fa50   Data           0  startup_stm32f10x_hd.o(STACK)
    mem2base                                 0x68000000   Data       1013760  malloc.o(.ARM.__AT_0x68000000)
    mem2mapbase                              0x680f7800   Data       63360  malloc.o(.ARM.__AT_0x680F7800)
    data_buf                                 0x68106f80   Data       57600  main.o(.ARM.__AT_0x68106F80)



==============================================================================

Memory Map of the image

  Image Entry point : 0x08000131

  Load Region LR_IROM1 (Base: 0x08000000, Size: 0x000171e8, Max: 0x00080000, ABSOLUTE)

    Execution Region ER_IROM1 (Exec base: 0x08000000, Load base: 0x08000000, Size: 0x0001716c, Max: 0x00080000, ABSOLUTE)

    Exec Addr    Load Addr    Size         Type   Attr      Idx    E Section Name        Object

    0x08000000   0x08000000   0x00000130   Data   RO         5257    RESET               startup_stm32f10x_hd.o
    0x08000130   0x08000130   0x00000000   Code   RO         5308  * .ARM.Collect$$$$00000000  mc_w.l(entry.o)
    0x08000130   0x08000130   0x00000004   Code   RO         5652    .ARM.Collect$$$$00000001  mc_w.l(entry2.o)
    0x08000134   0x08000134   0x00000004   Code   RO         5655    .ARM.Collect$$$$00000004  mc_w.l(entry5.o)
    0x08000138   0x08000138   0x00000000   Code   RO         5657    .ARM.Collect$$$$00000008  mc_w.l(entry7b.o)
    0x08000138   0x08000138   0x00000000   Code   RO         5659    .ARM.Collect$$$$0000000A  mc_w.l(entry8b.o)
    0x08000138   0x08000138   0x00000008   Code   RO         5660    .ARM.Collect$$$$0000000B  mc_w.l(entry9a.o)
    0x08000140   0x08000140   0x00000004   Code   RO         5667    .ARM.Collect$$$$0000000E  mc_w.l(entry12b.o)
    0x08000144   0x08000144   0x00000000   Code   RO         5662    .ARM.Collect$$$$0000000F  mc_w.l(entry10a.o)
    0x08000144   0x08000144   0x00000000   Code   RO         5664    .ARM.Collect$$$$00000011  mc_w.l(entry11a.o)
    0x08000144   0x08000144   0x00000004   Code   RO         5653    .ARM.Collect$$$$00002712  mc_w.l(entry2.o)
    0x08000148   0x08000148   0x00000024   Code   RO         5258    .text               startup_stm32f10x_hd.o
    0x0800016c   0x0800016c   0x00000062   Code   RO         5320    .text               mc_w.l(ldiv.o)
    0x080001ce   0x080001ce   0x00000024   Code   RO         5322    .text               mc_w.l(llsshr.o)
    0x080001f2   0x080001f2   0x0000009c   Code   RO         5324    .text               mc_w.l(qsort.o)
    0x0800028e   0x0800028e   0x00000040   Code   RO         5328    .text               mc_w.l(memmovea.o)
    0x080002ce   0x080002ce   0x0000001c   Code   RO         5338    .text               mc_w.l(strcmp.o)
    0x080002ea   0x080002ea   0x00000014   Code   RO         5340    .text               mc_w.l(memchr.o)
    0x080002fe   0x080002fe   0x0000001a   Code   RO         5342    .text               mc_w.l(memcmp.o)
    0x08000318   0x08000318   0x00000062   Code   RO         5671    .text               mc_w.l(uldiv.o)
    0x0800037a   0x0800037a   0x00000002   PAD
    0x0800037c   0x0800037c   0x00000024   Code   RO         5716    .text               mc_w.l(init.o)
    0x080003a0   0x080003a0   0x0000001e   Code   RO         5718    .text               mc_w.l(llshl.o)
    0x080003be   0x080003be   0x00000020   Code   RO         5720    .text               mc_w.l(llushr.o)
    0x080003de   0x080003de   0x00000002   PAD
    0x080003e0   0x080003e0   0x00000034   Code   RO         2851    i.Buzzle_Init       buzzle.o
    0x08000414   0x08000414   0x00000002   Code   RO         5012    i.DMA1_Channel1_Event  dma_stm32f10x.o
    0x08000416   0x08000416   0x00000002   PAD
    0x08000418   0x08000418   0x0000001c   Code   RO         5013    i.DMA1_Channel1_IRQHandler  dma_stm32f10x.o
    0x08000434   0x08000434   0x00000002   Code   RO         5014    i.DMA1_Channel2_Event  dma_stm32f10x.o
    0x08000436   0x08000436   0x00000002   PAD
    0x08000438   0x08000438   0x0000001c   Code   RO         5015    i.DMA1_Channel2_IRQHandler  dma_stm32f10x.o
    0x08000454   0x08000454   0x00000002   Code   RO         5016    i.DMA1_Channel3_Event  dma_stm32f10x.o
    0x08000456   0x08000456   0x00000002   PAD
    0x08000458   0x08000458   0x0000001c   Code   RO         5017    i.DMA1_Channel3_IRQHandler  dma_stm32f10x.o
    0x08000474   0x08000474   0x00000002   Code   RO         5018    i.DMA1_Channel4_Event  dma_stm32f10x.o
    0x08000476   0x08000476   0x00000002   PAD
    0x08000478   0x08000478   0x0000001c   Code   RO         5019    i.DMA1_Channel4_IRQHandler  dma_stm32f10x.o
    0x08000494   0x08000494   0x00000002   Code   RO         5020    i.DMA1_Channel5_Event  dma_stm32f10x.o
    0x08000496   0x08000496   0x00000002   PAD
    0x08000498   0x08000498   0x0000001c   Code   RO         5021    i.DMA1_Channel5_IRQHandler  dma_stm32f10x.o
    0x080004b4   0x080004b4   0x00000002   Code   RO         5022    i.DMA1_Channel6_Event  dma_stm32f10x.o
    0x080004b6   0x080004b6   0x00000002   PAD
    0x080004b8   0x080004b8   0x0000001c   Code   RO         5023    i.DMA1_Channel6_IRQHandler  dma_stm32f10x.o
    0x080004d4   0x080004d4   0x00000002   Code   RO         5024    i.DMA1_Channel7_Event  dma_stm32f10x.o
    0x080004d6   0x080004d6   0x00000002   PAD
    0x080004d8   0x080004d8   0x0000001c   Code   RO         5025    i.DMA1_Channel7_IRQHandler  dma_stm32f10x.o
    0x080004f4   0x080004f4   0x00000002   Code   RO         5026    i.DMA2_Channel1_Event  dma_stm32f10x.o
    0x080004f6   0x080004f6   0x00000002   PAD
    0x080004f8   0x080004f8   0x0000001c   Code   RO         5027    i.DMA2_Channel1_IRQHandler  dma_stm32f10x.o
    0x08000514   0x08000514   0x00000002   Code   RO         5028    i.DMA2_Channel2_Event  dma_stm32f10x.o
    0x08000516   0x08000516   0x00000002   PAD
    0x08000518   0x08000518   0x00000020   Code   RO         5029    i.DMA2_Channel2_IRQHandler  dma_stm32f10x.o
    0x08000538   0x08000538   0x00000002   Code   RO         5030    i.DMA2_Channel3_Event  dma_stm32f10x.o
    0x0800053a   0x0800053a   0x00000002   PAD
    0x0800053c   0x0800053c   0x00000020   Code   RO         5031    i.DMA2_Channel3_IRQHandler  dma_stm32f10x.o
    0x0800055c   0x0800055c   0x00000038   Code   RO         5032    i.DMA2_Channel4_5_IRQHandler  dma_stm32f10x.o
    0x08000594   0x08000594   0x00000002   Code   RO         5033    i.DMA2_Channel4_Event  dma_stm32f10x.o
    0x08000596   0x08000596   0x00000002   Code   RO         5035    i.DMA2_Channel5_Event  dma_stm32f10x.o
    0x08000598   0x08000598   0x0000004c   Code   RO            4    i.EXTI7_Init        main.o
    0x080005e4   0x080005e4   0x00000044   Code   RO            5    i.EXTI9_5_IRQHandler  main.o
    0x08000628   0x08000628   0x0000000c   Code   RO         2624    i.EXTI_ClearITPendingBit  my_stm32f10x_exti.o
    0x08000634   0x08000634   0x00000028   Code   RO         2628    i.EXTI_GetITStatus  my_stm32f10x_exti.o
    0x0800065c   0x0800065c   0x00000094   Code   RO         2629    i.EXTI_Init         my_stm32f10x_exti.o
    0x080006f0   0x080006f0   0x00000034   Code   RO         3429    i.FSMC_NORSRAMCmd   stm32f10x_fsmc.o
    0x08000724   0x08000724   0x000000e6   Code   RO         3431    i.FSMC_NORSRAMInit  stm32f10x_fsmc.o
    0x0800080a   0x0800080a   0x00000002   PAD
    0x0800080c   0x0800080c   0x000000f4   Code   RO          307    i.FSMC_SRAM_Init    sram.o
    0x08000900   0x08000900   0x00000034   Code   RO          196    i.GPIO_Config       init.o
    0x08000934   0x08000934   0x00000040   Code   RO         3553    i.GPIO_EXTILineConfig  stm32f10x_gpio.o
    0x08000974   0x08000974   0x00000116   Code   RO         3556    i.GPIO_Init         stm32f10x_gpio.o
    0x08000a8a   0x08000a8a   0x00000004   Code   RO         3563    i.GPIO_ResetBits    stm32f10x_gpio.o
    0x08000a8e   0x08000a8e   0x00000004   Code   RO         3564    i.GPIO_SetBits      stm32f10x_gpio.o
    0x08000a92   0x08000a92   0x00000002   PAD
    0x08000a94   0x08000a94   0x00000060   Code   RO         2161    i.LCD_Clear         lcd.o
    0x08000af4   0x08000af4   0x0000002c   Code   RO         2164    i.LCD_GPIOInit      lcd.o
    0x08000b20   0x08000b20   0x00000250   Code   RO         2165    i.LCD_Init          lcd.o
    0x08000d70   0x08000d70   0x00000028   Code   RO         2166    i.LCD_RESET         lcd.o
    0x08000d98   0x08000d98   0x00000058   Code   RO         2169    i.LCD_SetWindows    lcd.o
    0x08000df0   0x08000df0   0x00000030   Code   RO         2170    i.LCD_WR_DATA       lcd.o
    0x08000e20   0x08000e20   0x0000002c   Code   RO         2171    i.LCD_WR_REG        lcd.o
    0x08000e4c   0x08000e4c   0x00000010   Code   RO         2172    i.LCD_WriteRAM_Prepare  lcd.o
    0x08000e5c   0x08000e5c   0x00000014   Code   RO         2173    i.LCD_WriteReg      lcd.o
    0x08000e70   0x08000e70   0x00000084   Code   RO         2174    i.LCD_direction     lcd.o
    0x08000ef4   0x08000ef4   0x00000010   Code   RO         2888    i.LED0_ON           led.o
    0x08000f04   0x08000f04   0x00000010   Code   RO         2889    i.LED4_OFF          led.o
    0x08000f14   0x08000f14   0x00000010   Code   RO         2890    i.LED4_ON           led.o
    0x08000f24   0x08000f24   0x00000010   Code   RO         2892    i.LED5_OFF          led.o
    0x08000f34   0x08000f34   0x00000010   Code   RO         2893    i.LED5_ON           led.o
    0x08000f44   0x08000f44   0x00000034   Code   RO         2895    i.LED_Init          led.o
    0x08000f78   0x08000f78   0x00000038   Code   RO         2175    i.Lcd_WriteData_16Bit  lcd.o
    0x08000fb0   0x08000fb0   0x00000070   Code   RO         2974    i.NVIC_Init         misc.o
    0x08001020   0x08001020   0x00000032   Code   RO         2301    i.OV7670_Brightness  ov7670.o
    0x08001052   0x08001052   0x0000007a   Code   RO         2302    i.OV7670_Color_Saturation  ov7670.o
    0x080010cc   0x080010cc   0x00000032   Code   RO         2303    i.OV7670_Contrast   ov7670.o
    0x080010fe   0x080010fe   0x00000002   PAD
    0x08001100   0x08001100   0x00000100   Code   RO         2304    i.OV7670_Init       ov7670.o
    0x08001200   0x08001200   0x0000005c   Code   RO         2305    i.OV7670_Light_Mode  ov7670.o
    0x0800125c   0x0800125c   0x0000006a   Code   RO         2306    i.OV7670_Special_Effects  ov7670.o
    0x080012c6   0x080012c6   0x00000002   PAD
    0x080012c8   0x080012c8   0x00000020   Code   RO         3749    i.RCC_AHBPeriphClockCmd  stm32f10x_rcc.o
    0x080012e8   0x080012e8   0x00000020   Code   RO         3750    i.RCC_APB1PeriphClockCmd  stm32f10x_rcc.o
    0x08001308   0x08001308   0x00000020   Code   RO         3752    i.RCC_APB2PeriphClockCmd  stm32f10x_rcc.o
    0x08001328   0x08001328   0x000000d4   Code   RO         3760    i.RCC_GetClocksFreq  stm32f10x_rcc.o
    0x080013fc   0x080013fc   0x00000050   Code   RO         2374    i.SCCB_Init         sccb.o
    0x0800144c   0x0800144c   0x00000040   Code   RO         2375    i.SCCB_No_Ack       sccb.o
    0x0800148c   0x0800148c   0x0000004c   Code   RO         2376    i.SCCB_RD_Byte      sccb.o
    0x080014d8   0x080014d8   0x0000004e   Code   RO         2377    i.SCCB_RD_Reg       sccb.o
    0x08001526   0x08001526   0x00000002   PAD
    0x08001528   0x08001528   0x0000001c   Code   RO         2378    i.SCCB_SDA_IN       sccb.o
    0x08001544   0x08001544   0x00000024   Code   RO         2379    i.SCCB_SDA_OUT      sccb.o
    0x08001568   0x08001568   0x00000034   Code   RO         2380    i.SCCB_Start        sccb.o
    0x0800159c   0x0800159c   0x00000034   Code   RO         2381    i.SCCB_Stop         sccb.o
    0x080015d0   0x080015d0   0x00000084   Code   RO         2382    i.SCCB_WR_Byte      sccb.o
    0x08001654   0x08001654   0x0000003e   Code   RO         2383    i.SCCB_WR_Reg       sccb.o
    0x08001692   0x08001692   0x00000002   PAD
    0x08001694   0x08001694   0x0000009c   Code   RO         2581    i.SPI2_Init         spi.o
    0x08001730   0x08001730   0x00000018   Code   RO         2697    i.SPI_Cmd           my_stm32f10x_spi.o
    0x08001748   0x08001748   0x0000003c   Code   RO         2710    i.SPI_Init          my_stm32f10x_spi.o
    0x08001784   0x08001784   0x00000022   Code   RO         2583    i.SPI_WriteByte     spi.o
    0x080017a6   0x080017a6   0x00000002   PAD
    0x080017a8   0x080017a8   0x00000020   Code   RO          199    i.Serial_SendByte2  init.o
    0x080017c8   0x080017c8   0x00000020   Code   RO          200    i.Serial_SendByte4  init.o
    0x080017e8   0x080017e8   0x0000001a   Code   RO          201    i.Serial_SendString2  init.o
    0x08001802   0x08001802   0x0000001a   Code   RO          202    i.Serial_SendString4  init.o
    0x0800181c   0x0800181c   0x00000008   Code   RO         5265    i.SetSysClock       system_stm32f10x.o
    0x08001824   0x08001824   0x000000e0   Code   RO         5266    i.SetSysClockTo72   system_stm32f10x.o
    0x08001904   0x08001904   0x00000028   Code   RO         2978    i.SysTick_CLKSourceConfig  misc.o
    0x0800192c   0x0800192c   0x00000060   Code   RO         5268    i.SystemInit        system_stm32f10x.o
    0x0800198c   0x0800198c   0x0000003c   Code   RO          203    i.Systick_Config    init.o
    0x080019c8   0x080019c8   0x00000040   Code   RO         2459    i.TIM4_IRQHandler   time.o
    0x08001a08   0x08001a08   0x00000006   Code   RO         4271    i.TIM_ClearITPendingBit  stm32f10x_tim.o
    0x08001a0e   0x08001a0e   0x00000022   Code   RO         4297    i.TIM_GetITStatus   stm32f10x_tim.o
    0x08001a30   0x08001a30   0x00000088   Code   RO          204    i.UART4_Init        init.o
    0x08001ab8   0x08001ab8   0x00000084   Code   RO          205    i.USART2_Init       init.o
    0x08001b3c   0x08001b3c   0x00000018   Code   RO         4824    i.USART_Cmd         stm32f10x_usart.o
    0x08001b54   0x08001b54   0x0000007c   Code   RO          206    i.USART_Config      init.o
    0x08001bd0   0x08001bd0   0x0000001a   Code   RO         4827    i.USART_GetFlagStatus  stm32f10x_usart.o
    0x08001bea   0x08001bea   0x00000002   PAD
    0x08001bec   0x08001bec   0x000000d8   Code   RO         4831    i.USART_Init        stm32f10x_usart.o
    0x08001cc4   0x08001cc4   0x00000008   Code   RO         4841    i.USART_SendData    stm32f10x_usart.o
    0x08001ccc   0x08001ccc   0x00000114   Code   RO            7    i.Zbar_Test         main.o
    0x08001de0   0x08001de0   0x00000024   Code   RO         1203    i.Zbar_calloc       zbar_config.o
    0x08001e04   0x08001e04   0x0000000e   Code   RO         1204    i.Zbar_free         zbar_config.o
    0x08001e12   0x08001e12   0x0000000e   Code   RO         1205    i.Zbar_malloc       zbar_config.o
    0x08001e20   0x08001e20   0x00000014   Code   RO         1206    i.Zbar_memcpy       zbar_config.o
    0x08001e34   0x08001e34   0x00000014   Code   RO         1207    i.Zbar_memset       zbar_config.o
    0x08001e48   0x08001e48   0x00000012   Code   RO         1208    i.Zbar_realloc      zbar_config.o
    0x08001e5a   0x08001e5a   0x00000002   PAD
    0x08001e5c   0x08001e5c   0x0000001c   Code   RO         5560    i.__0fprintf$8      mc_w.l(printf8.o)
    0x08001e78   0x08001e78   0x00000020   Code   RO         5561    i.__0printf$8       mc_w.l(printf8.o)
    0x08001e98   0x08001e98   0x0000000e   Code   RO         5728    i.__scatterload_copy  mc_w.l(handlers.o)
    0x08001ea6   0x08001ea6   0x00000002   Code   RO         5729    i.__scatterload_null  mc_w.l(handlers.o)
    0x08001ea8   0x08001ea8   0x0000000e   Code   RO         5730    i.__scatterload_zeroinit  mc_w.l(handlers.o)
    0x08001eb6   0x08001eb6   0x00000002   PAD
    0x08001eb8   0x08001eb8   0x00000404   Code   RO         5568    i._printf_core      mc_w.l(printf8.o)
    0x080022bc   0x080022bc   0x00000024   Code   RO         5569    i._printf_post_padding  mc_w.l(printf8.o)
    0x080022e0   0x080022e0   0x0000002e   Code   RO         5570    i._printf_pre_padding  mc_w.l(printf8.o)
    0x0800230e   0x0800230e   0x00000008   Code   RO         1964    i._zbar_decoder_get_qr_finder_line  qr_finder.o
    0x08002316   0x08002316   0x0000010c   Code   RO         1965    i._zbar_find_qr     qr_finder.o
    0x08002422   0x08002422   0x0000001e   Code   RO          571    i._zbar_image_free  image.o
    0x08002440   0x08002440   0x0000002e   Code   RO          572    i._zbar_image_refcnt  image.o
    0x0800246e   0x0800246e   0x00000060   Code   RO          741    i._zbar_image_scanner_add_sym  img_scanner.o
    0x080024ce   0x080024ce   0x000000d8   Code   RO          850    i._zbar_image_scanner_alloc_sym  img_scanner.o
    0x080025a6   0x080025a6   0x000000ac   Code   RO          742    i._zbar_image_scanner_recycle_syms  img_scanner.o
    0x08002652   0x08002652   0x00000018   Code   RO         1390    i._zbar_qr_create   qrdec.o
    0x0800266a   0x0800266a   0x00000002   PAD
    0x0800266c   0x0800266c   0x00000124   Code   RO         1391    i._zbar_qr_decode   qrdec.o
    0x08002790   0x08002790   0x0000007c   Code   RO         1392    i._zbar_qr_destroy  qrdec.o
    0x0800280c   0x0800280c   0x00000056   Code   RO         1393    i._zbar_qr_found_line  qrdec.o
    0x08002862   0x08002862   0x00000010   Code   RO         1394    i._zbar_qr_reset    qrdec.o
    0x08002872   0x08002872   0x0000000c   Code   RO          743    i._zbar_refcnt      img_scanner.o
    0x0800287e   0x0800287e   0x0000000c   Code   RO          988    i._zbar_refcnt      symbol.o
    0x0800288a   0x0800288a   0x00000002   Code   RO          894    i._zbar_refcnt_init  refcnt.o
    0x0800288c   0x0800288c   0x00000036   Code   RO          989    i._zbar_symbol_free  symbol.o
    0x080028c2   0x080028c2   0x0000001e   Code   RO          990    i._zbar_symbol_refcnt  symbol.o
    0x080028e0   0x080028e0   0x00000018   Code   RO          991    i._zbar_symbol_set_create  symbol.o
    0x080028f8   0x080028f8   0x00000028   Code   RO         1124    i._zbar_symbol_set_free  symbol.o
    0x08002920   0x08002920   0x00000090   Code   RO         1254    i.bch15_5_calc_epos  bch15_5.o
    0x080029b0   0x080029b0   0x00000068   Code   RO         1255    i.bch15_5_calc_omega  bch15_5.o
    0x08002a18   0x08002a18   0x0000009c   Code   RO         1256    i.bch15_5_calc_syndrome  bch15_5.o
    0x08002ab4   0x08002ab4   0x00000052   Code   RO         1257    i.bch15_5_correct   bch15_5.o
    0x08002b06   0x08002b06   0x00000046   Code   RO         1258    i.bch15_5_encode    bch15_5.o
    0x08002b4c   0x08002b4c   0x00000074   Code   RO         1395    i.bch18_6_correct   qrdec.o
    0x08002bc0   0x08002bc0   0x00000010   Code   RO         2896    i.buzzle6_OFF       led.o
    0x08002bd0   0x08002bd0   0x00000010   Code   RO         2897    i.buzzle6_ON        led.o
    0x08002be0   0x08002be0   0x0000006a   Code   RO          744    i.cache_lookup      img_scanner.o
    0x08002c4a   0x08002c4a   0x000000ae   Code   RO          745    i.cache_sym         img_scanner.o
    0x08002cf8   0x08002cf8   0x00000040   Code   RO          909    i.calc_thresh       scanner.o
    0x08002d38   0x08002d38   0x00000104   Code   RO            8    i.camera_refresh    main.o
    0x08002e3c   0x08002e3c   0x00000026   Code   RO         1966    i.decode_e          qr_finder.o
    0x08002e62   0x08002e62   0x00000048   Code   RO          456    i.decoder_set_config_bool  decoder.o
    0x08002eaa   0x08002eaa   0x00000002   PAD
    0x08002eac   0x08002eac   0x0000004c   Code   RO          207    i.delay_ms          init.o
    0x08002ef8   0x08002ef8   0x0000004c   Code   RO          208    i.delay_us          init.o
    0x08002f44   0x08002f44   0x0000018c   Code   RO          746    i.dump_stats        img_scanner.o
    0x080030d0   0x080030d0   0x0000001c   Code   RO          209    i.fputc             init.o
    0x080030ec   0x080030ec   0x00000012   Code   RO         1967    i.get_width         qr_finder.o
    0x080030fe   0x080030fe   0x00000002   PAD
    0x08003100   0x08003100   0x00000024   Code   RO         1259    i.gf16_div          bch15_5.o
    0x08003124   0x08003124   0x0000001c   Code   RO         1260    i.gf16_hmul         bch15_5.o
    0x08003140   0x08003140   0x00000024   Code   RO         1261    i.gf16_mul          bch15_5.o
    0x08003164   0x08003164   0x00000150   Code   RO         1349    i.isaac_init        isaac.o
    0x080032b4   0x080032b4   0x000000bc   Code   RO         1350    i.isaac_mix         isaac.o
    0x08003370   0x08003370   0x0000002a   Code   RO         1351    i.isaac_next_uint   isaac.o
    0x0800339a   0x0800339a   0x0000001c   Code   RO         1352    i.isaac_next_uint32  isaac.o
    0x080033b6   0x080033b6   0x00000220   Code   RO         1353    i.isaac_update      isaac.o
    0x080035d6   0x080035d6   0x00000002   PAD
    0x080035d8   0x080035d8   0x000000d0   Code   RO           10    i.main              main.o
    0x080036a8   0x080036a8   0x0000006c   Code   RO          346    i.my_mem_free       malloc.o
    0x08003714   0x08003714   0x00000044   Code   RO          347    i.my_mem_init       malloc.o
    0x08003758   0x08003758   0x000000a8   Code   RO          348    i.my_mem_malloc     malloc.o
    0x08003800   0x08003800   0x00000040   Code   RO          349    i.my_mem_perused    malloc.o
    0x08003840   0x08003840   0x00000024   Code   RO          350    i.myfree            malloc.o
    0x08003864   0x08003864   0x00000028   Code   RO          351    i.mymalloc          malloc.o
    0x0800388c   0x0800388c   0x0000001a   Code   RO          352    i.mymemcpy          malloc.o
    0x080038a6   0x080038a6   0x00000014   Code   RO          353    i.mymemset          malloc.o
    0x080038ba   0x080038ba   0x00000002   PAD
    0x080038bc   0x080038bc   0x00000044   Code   RO          354    i.myrealloc         malloc.o
    0x08003900   0x08003900   0x0000001e   Code   RO         1968    i.pair_width        qr_finder.o
    0x0800391e   0x0800391e   0x00000038   Code   RO          910    i.process_edge      scanner.o
    0x08003956   0x08003956   0x000000f6   Code   RO         1396    i.qr_aff_init       qrdec.o
    0x08003a4c   0x08003a4c   0x00000116   Code   RO         1397    i.qr_aff_line_step  qrdec.o
    0x08003b62   0x08003b62   0x00000048   Code   RO         1398    i.qr_aff_project    qrdec.o
    0x08003baa   0x08003baa   0x0000002c   Code   RO         1399    i.qr_aff_unproject  qrdec.o
    0x08003bd6   0x08003bd6   0x00000076   Code   RO         1400    i.qr_alignment_pattern_fetch  qrdec.o
    0x08003c4c   0x08003c4c   0x000006c4   Code   RO         1401    i.qr_alignment_pattern_search  qrdec.o
    0x08004310   0x08004310   0x00000284   Code   RO         1307    i.qr_binarize       binarize.o
    0x08004594   0x08004594   0x0000004c   Code   RO         1402    i.qr_cmp_edge_pt    qrdec.o
    0x080045e0   0x080045e0   0x00000042   Code   RO         1403    i.qr_code_data_clear  qrdec.o
    0x08004622   0x08004622   0x00000042   Code   RO         1404    i.qr_code_data_list_add  qrdec.o
    0x08004664   0x08004664   0x0000002c   Code   RO         1405    i.qr_code_data_list_clear  qrdec.o
    0x08004690   0x08004690   0x0000050c   Code   RO         1764    i.qr_code_data_list_extract_text  qrdectxt.o
    0x08004b9c   0x08004b9c   0x0000000a   Code   RO         1406    i.qr_code_data_list_init  qrdec.o
    0x08004ba6   0x08004ba6   0x00000002   PAD
    0x08004ba8   0x08004ba8   0x00000458   Code   RO         1407    i.qr_code_data_parse  qrdec.o
    0x08005000   0x08005000   0x000001b8   Code   RO         1408    i.qr_code_decode    qrdec.o
    0x080051b8   0x080051b8   0x00000040   Code   RO         1409    i.qr_code_ncodewords  qrdec.o
    0x080051f8   0x080051f8   0x00000210   Code   RO         1410    i.qr_data_mask_fill  qrdec.o
    0x08005408   0x08005408   0x0000006e   Code   RO         1411    i.qr_finder_center_cmp  qrdec.o
    0x08005476   0x08005476   0x00000002   PAD
    0x08005478   0x08005478   0x00000124   Code   RO         1412    i.qr_finder_centers_locate  qrdec.o
    0x0800559c   0x0800559c   0x0000021e   Code   RO         1413    i.qr_finder_cluster_lines  qrdec.o
    0x080057ba   0x080057ba   0x00000002   PAD
    0x080057bc   0x080057bc   0x000000e8   Code   RO         1414    i.qr_finder_edge_pts_aff_classify  qrdec.o
    0x080058a4   0x080058a4   0x000000b2   Code   RO         1415    i.qr_finder_edge_pts_fill  qrdec.o
    0x08005956   0x08005956   0x00000002   PAD
    0x08005958   0x08005958   0x00000100   Code   RO         1416    i.qr_finder_edge_pts_hom_classify  qrdec.o
    0x08005a58   0x08005a58   0x00000224   Code   RO         1417    i.qr_finder_estimate_module_size_and_version  qrdec.o
    0x08005c7c   0x08005c7c   0x00000228   Code   RO         1418    i.qr_finder_find_crossings  qrdec.o
    0x08005ea4   0x08005ea4   0x0000040a   Code   RO         1419    i.qr_finder_fmt_info_decode  qrdec.o
    0x080062ae   0x080062ae   0x00000032   Code   RO         1420    i.qr_finder_lines_are_crossing  qrdec.o
    0x080062e0   0x080062e0   0x000001a8   Code   RO         1421    i.qr_finder_locate_crossing  qrdec.o
    0x08006488   0x08006488   0x00000082   Code   RO         1422    i.qr_finder_quick_crossing_check  qrdec.o
    0x0800650a   0x0800650a   0x000001f4   Code   RO         1423    i.qr_finder_ransac  qrdec.o
    0x080066fe   0x080066fe   0x00000184   Code   RO         1424    i.qr_finder_version_decode  qrdec.o
    0x08006882   0x08006882   0x0000004c   Code   RO         1425    i.qr_finder_vline_cmp  qrdec.o
    0x080068ce   0x080068ce   0x0000001e   Code   RO         1426    i.qr_hamming_dist   qrdec.o
    0x080068ec   0x080068ec   0x000000a0   Code   RO          747    i.qr_handler        img_scanner.o
    0x0800698c   0x0800698c   0x00000068   Code   RO         1427    i.qr_hom_cell_fproject  qrdec.o
    0x080069f4   0x080069f4   0x00000b10   Code   RO         1428    i.qr_hom_cell_init  qrdec.o
    0x08007504   0x08007504   0x00000058   Code   RO         1429    i.qr_hom_cell_project  qrdec.o
    0x0800755c   0x0800755c   0x00001098   Code   RO         1430    i.qr_hom_fit        qrdec.o
    0x080085f4   0x080085f4   0x00000068   Code   RO         1431    i.qr_hom_fproject   qrdec.o
    0x0800865c   0x0800865c   0x00000a6a   Code   RO         1432    i.qr_hom_init       qrdec.o
    0x080090c6   0x080090c6   0x000000ca   Code   RO         1433    i.qr_hom_unproject  qrdec.o
    0x08009190   0x08009190   0x0000010c   Code   RO         1940    i.qr_ihypot         util.o
    0x0800929c   0x0800929c   0x0000005c   Code   RO         1941    i.qr_ilog           util.o
    0x080092f8   0x080092f8   0x00000098   Code   RO         1434    i.qr_img_get_bit    qrdec.o
    0x08009390   0x08009390   0x0000002c   Code   RO         1942    i.qr_isqrt          util.o
    0x080093bc   0x080093bc   0x00000014   Code   RO         1435    i.qr_line_eval      qrdec.o
    0x080093d0   0x080093d0   0x00000152   Code   RO         1436    i.qr_line_fit       qrdec.o
    0x08009522   0x08009522   0x00000070   Code   RO         1437    i.qr_line_fit_finder_edge  qrdec.o
    0x08009592   0x08009592   0x00000146   Code   RO         1438    i.qr_line_fit_finder_pair  qrdec.o
    0x080096d8   0x080096d8   0x00000328   Code   RO         1439    i.qr_line_fit_points  qrdec.o
    0x08009a00   0x08009a00   0x00000076   Code   RO         1440    i.qr_line_isect     qrdec.o
    0x08009a76   0x08009a76   0x0000002a   Code   RO         1441    i.qr_line_orient    qrdec.o
    0x08009aa0   0x08009aa0   0x00000010   Code   RO         1442    i.qr_pack_buf_avail  qrdec.o
    0x08009ab0   0x08009ab0   0x0000000c   Code   RO         1443    i.qr_pack_buf_init  qrdec.o
    0x08009abc   0x08009abc   0x00000076   Code   RO         1444    i.qr_pack_buf_read  qrdec.o
    0x08009b32   0x08009b32   0x00000022   Code   RO         1445    i.qr_point_ccw      qrdec.o
    0x08009b54   0x08009b54   0x0000001e   Code   RO         1446    i.qr_point_distance2  qrdec.o
    0x08009b72   0x08009b72   0x0000000e   Code   RO         1447    i.qr_point_translate  qrdec.o
    0x08009b80   0x08009b80   0x0000001a   Code   RO         1448    i.qr_reader_init    qrdec.o
    0x08009b9a   0x08009b9a   0x000001e8   Code   RO         1449    i.qr_reader_match_centers  qrdec.o
    0x08009d82   0x08009d82   0x0000038e   Code   RO         1450    i.qr_reader_try_configuration  qrdec.o
    0x0800a110   0x0800a110   0x00000282   Code   RO         1451    i.qr_samples_unpack  qrdec.o
    0x0800a392   0x0800a392   0x00000012   Code   RO         1452    i.qr_sampling_grid_clear  qrdec.o
    0x0800a3a4   0x0800a3a4   0x00000064   Code   RO         1453    i.qr_sampling_grid_fp_mask_rect  qrdec.o
    0x0800a408   0x0800a408   0x00000a3c   Code   RO         1454    i.qr_sampling_grid_init  qrdec.o
    0x0800ae44   0x0800ae44   0x00000022   Code   RO         1455    i.qr_sampling_grid_is_in_fp  qrdec.o
    0x0800ae66   0x0800ae66   0x0000016a   Code   RO         1456    i.qr_sampling_grid_sample  qrdec.o
    0x0800afd0   0x0800afd0   0x0000001a   Code   RO          748    i.quiet_border      img_scanner.o
    0x0800afea   0x0800afea   0x0000002a   Code   RO          749    i.recycle_syms      img_scanner.o
    0x0800b014   0x0800b014   0x00000050   Code   RO         1830    i.rs_calc_syndrome  rs.o
    0x0800b064   0x0800b064   0x00000172   Code   RO         1832    i.rs_correct        rs.o
    0x0800b1d6   0x0800b1d6   0x0000015c   Code   RO         1833    i.rs_cubic_solve    rs.o
    0x0800b332   0x0800b332   0x000000a0   Code   RO         1835    i.rs_find_roots     rs.o
    0x0800b3d2   0x0800b3d2   0x0000001a   Code   RO         1836    i.rs_gdiv           rs.o
    0x0800b3ec   0x0800b3ec   0x00000044   Code   RO         1837    i.rs_gf256_init     rs.o
    0x0800b430   0x0800b430   0x0000001a   Code   RO         1838    i.rs_gmul           rs.o
    0x0800b44a   0x0800b44a   0x00000022   Code   RO         1839    i.rs_gsqrt          rs.o
    0x0800b46c   0x0800b46c   0x00000016   Code   RO         1840    i.rs_hgmul          rs.o
    0x0800b482   0x0800b482   0x00000058   Code   RO         1841    i.rs_init_lambda    rs.o
    0x0800b4da   0x0800b4da   0x00000106   Code   RO         1842    i.rs_modified_berlekamp_massey  rs.o
    0x0800b5e0   0x0800b5e0   0x00000014   Code   RO         1843    i.rs_poly_copy      rs.o
    0x0800b5f4   0x0800b5f4   0x00000018   Code   RO         1845    i.rs_poly_mul_x     rs.o
    0x0800b60c   0x0800b60c   0x00000076   Code   RO         1846    i.rs_poly_mult      rs.o
    0x0800b682   0x0800b682   0x00000012   Code   RO         1847    i.rs_poly_zero      rs.o
    0x0800b694   0x0800b694   0x00000226   Code   RO         1848    i.rs_quadratic_solve  rs.o
    0x0800b8ba   0x0800b8ba   0x0000019c   Code   RO         1849    i.rs_quartic_solve  rs.o
    0x0800ba56   0x0800ba56   0x0000003a   Code   RO          750    i.sym_add_point     img_scanner.o
    0x0800ba90   0x0800ba90   0x0000003a   Code   RO         1765    i.sym_add_point     qrdectxt.o
    0x0800baca   0x0800baca   0x000000ee   Code   RO          751    i.symbol_handler    img_scanner.o
    0x0800bbb8   0x0800bbb8   0x00000064   Code   RO          457    i.zbar_decode_width  decoder.o
    0x0800bc1c   0x0800bc1c   0x00000078   Code   RO          458    i.zbar_decoder_create  decoder.o
    0x0800bc94   0x0800bc94   0x00000016   Code   RO          459    i.zbar_decoder_destroy  decoder.o
    0x0800bcaa   0x0800bcaa   0x00000006   Code   RO          461    i.zbar_decoder_get_data  decoder.o
    0x0800bcb0   0x0800bcb0   0x00000006   Code   RO          462    i.zbar_decoder_get_data_length  decoder.o
    0x0800bcb6   0x0800bcb6   0x00000008   Code   RO          463    i.zbar_decoder_get_type  decoder.o
    0x0800bcbe   0x0800bcbe   0x00000006   Code   RO          464    i.zbar_decoder_get_userdata  decoder.o
    0x0800bcc4   0x0800bcc4   0x0000001e   Code   RO          465    i.zbar_decoder_new_scan  decoder.o
    0x0800bce2   0x0800bce2   0x0000001c   Code   RO          466    i.zbar_decoder_reset  decoder.o
    0x0800bcfe   0x0800bcfe   0x000000c6   Code   RO          467    i.zbar_decoder_set_config  decoder.o
    0x0800bdc4   0x0800bdc4   0x00000008   Code   RO          468    i.zbar_decoder_set_handler  decoder.o
    0x0800bdcc   0x0800bdcc   0x00000004   Code   RO          469    i.zbar_decoder_set_userdata  decoder.o
    0x0800bdd0   0x0800bdd0   0x000000cc   Code   RO          993    i.zbar_get_symbol_name  symbol.o
    0x0800be9c   0x0800be9c   0x00000022   Code   RO          574    i.zbar_image_create  image.o
    0x0800bebe   0x0800bebe   0x00000010   Code   RO          575    i.zbar_image_destroy  image.o
    0x0800bece   0x0800bece   0x00000010   Code   RO          576    i.zbar_image_first_symbol  image.o
    0x0800bede   0x0800bede   0x00000002   PAD
    0x0800bee0   0x0800bee0   0x00000058   Code   RO          706    i.zbar_image_free_data  image.o
    0x0800bf38   0x0800bf38   0x0000008c   Code   RO          752    i.zbar_image_scanner_create  img_scanner.o
    0x0800bfc4   0x0800bfc4   0x00000084   Code   RO          753    i.zbar_image_scanner_destroy  img_scanner.o
    0x0800c048   0x0800c048   0x00000064   Code   RO          844    i.zbar_image_scanner_recycle_image  img_scanner.o
    0x0800c0ac   0x0800c0ac   0x00000076   Code   RO          756    i.zbar_image_scanner_set_config  img_scanner.o
    0x0800c122   0x0800c122   0x0000001c   Code   RO          586    i.zbar_image_set_data  image.o
    0x0800c13e   0x0800c13e   0x00000004   Code   RO          587    i.zbar_image_set_format  image.o
    0x0800c142   0x0800c142   0x00000006   Code   RO          589    i.zbar_image_set_size  image.o
    0x0800c148   0x0800c148   0x000003d8   Code   RO          758    i.zbar_scan_image   img_scanner.o
    0x0800c520   0x0800c520   0x000001a6   Code   RO          911    i.zbar_scan_y       scanner.o
    0x0800c6c6   0x0800c6c6   0x0000001c   Code   RO          912    i.zbar_scanner_create  scanner.o
    0x0800c6e2   0x0800c6e2   0x0000000c   Code   RO          913    i.zbar_scanner_destroy  scanner.o
    0x0800c6ee   0x0800c6ee   0x00000050   Code   RO          976    i.zbar_scanner_flush  scanner.o
    0x0800c73e   0x0800c73e   0x0000002a   Code   RO          915    i.zbar_scanner_get_edge  scanner.o
    0x0800c768   0x0800c768   0x00000006   Code   RO          917    i.zbar_scanner_get_width  scanner.o
    0x0800c76e   0x0800c76e   0x00000046   Code   RO          918    i.zbar_scanner_new_scan  scanner.o
    0x0800c7b4   0x0800c7b4   0x0000002a   Code   RO          919    i.zbar_scanner_reset  scanner.o
    0x0800c7de   0x0800c7de   0x00000006   Code   RO          997    i.zbar_symbol_get_data  symbol.o
    0x0800c7e4   0x0800c7e4   0x00000006   Code   RO         1003    i.zbar_symbol_get_type  symbol.o
    0x0800c7ea   0x0800c7ea   0x0000000c   Code   RO         1004    i.zbar_symbol_next  symbol.o
    0x0800c7f6   0x0800c7f6   0x0000001e   Code   RO         1008    i.zbar_symbol_set_ref  symbol.o
    0x0800c814   0x0800c814   0x000000e8   Code   RO         1768    i.zbar_utf8_to_gb18030  qrdectxt.o
    0x0800c8fc   0x0800c8fc   0x00000018   Data   RO          358    .constdata          malloc.o
    0x0800c914   0x0800c914   0x0000001b   Data   RO          759    .constdata          img_scanner.o
    0x0800c92f   0x0800c92f   0x0000002f   Data   RO         1262    .constdata          bch15_5.o
    0x0800c95e   0x0800c95e   0x00000008   Data   RO         1354    .constdata          isaac.o
    0x0800c966   0x0800c966   0x00000002   PAD
    0x0800c968   0x0800c968   0x00000264   Data   RO         1457    .constdata          qrdec.o
    0x0800cbcc   0x0800cbcc   0x0000a34c   Data   RO         1769    .constdata          qrdectxt.o
    0x08016f18   0x08016f18   0x00000150   Data   RO         2308    .constdata          ov7670.o
    0x08017068   0x08017068   0x000000e3   Data   RO         1153    .conststring        error.o
    0x0801714b   0x0801714b   0x00000001   PAD
    0x0801714c   0x0801714c   0x00000020   Data   RO         5726    Region$$Table       anon$$obj.o


    Execution Region RW_IRAM1 (Exec base: 0x20000000, Load base: 0x0801716c, Size: 0x0000fa50, Max: 0x00010000, ABSOLUTE)

    Exec Addr    Load Addr    Size         Type   Attr      Idx    E Section Name        Object

    0x20000000   0x0801716c   0x00000002   Data   RW           12    .data               main.o
    0x20000002   0x0801716e   0x00000004   Data   RW          210    .data               init.o
    0x20000006   0x08017172   0x00000002   PAD
    0x20000008   0x08017174   0x0000001c   Data   RW          359    .data               malloc.o
    0x20000024   0x08017190   0x00000038   Data   RW         1154    .data               error.o
    0x2000005c   0x080171c8   0x00000001   Data   RW         2461    .data               time.o
    0x2000005d   0x080171c9   0x00000014   Data   RW         3780    .data               stm32f10x_rcc.o
    0x20000071   0x080171dd   0x00000003   PAD
    0x20000074   0x080171e0   0x00000004   Data   RW         5319    .data               mc_w.l(stderr.o)
    0x20000078   0x080171e4   0x00000004   Data   RW         5668    .data               mc_w.l(stdout.o)
    0x2000007c   0x080171e8   0x00000004   PAD
    0x20000080        -       0x0000e9c0   Zero   RW          357    .bss                malloc.o
    0x2000ea40        -       0x0000000e   Zero   RW         2179    .bss                lcd.o
    0x2000ea4e   0x080171e8   0x00000002   PAD
    0x2000ea50        -       0x00001000   Zero   RW         5255    STACK               startup_stm32f10x_hd.o



  Load Region LR$$.ARM.__AT_0x68000000 (Base: 0x68000000, Size: 0x00000000, Max: 0x000f7800, ABSOLUTE)

    Execution Region ER$$.ARM.__AT_0x68000000 (Exec base: 0x68000000, Load base: 0x68000000, Size: 0x000f7800, Max: 0x000f7800, ABSOLUTE, UNINIT)

    Exec Addr    Load Addr    Size         Type   Attr      Idx    E Section Name        Object

    0x68000000        -       0x000f7800   Zero   RW          355    .ARM.__AT_0x68000000  malloc.o



  Load Region LR$$.ARM.__AT_0x680F7800 (Base: 0x680f7800, Size: 0x00000000, Max: 0x0000f780, ABSOLUTE)

    Execution Region ER$$.ARM.__AT_0x680F7800 (Exec base: 0x680f7800, Load base: 0x680f7800, Size: 0x0000f780, Max: 0x0000f780, ABSOLUTE, UNINIT)

    Exec Addr    Load Addr    Size         Type   Attr      Idx    E Section Name        Object

    0x680f7800        -       0x0000f780   Zero   RW          356    .ARM.__AT_0x680F7800  malloc.o



  Load Region LR$$.ARM.__AT_0x68106F80 (Base: 0x68106f80, Size: 0x00000000, Max: 0x0000e100, ABSOLUTE)

    Execution Region ER$$.ARM.__AT_0x68106F80 (Exec base: 0x68106f80, Load base: 0x68106f80, Size: 0x0000e100, Max: 0x0000e100, ABSOLUTE, UNINIT)

    Exec Addr    Load Addr    Size         Type   Attr      Idx    E Section Name        Object

    0x68106f80        -       0x0000e100   Zero   RW           11    .ARM.__AT_0x68106F80  main.o


==============================================================================

Image component sizes


      Code (inc. data)   RO Data    RW Data    ZI Data      Debug   Object Name

       656         44         47          0          0       5839   bch15_5.o
       644          0          0          0          0       6966   binarize.o
        52          6          0          0          0        474   buzzle.o
       608         64          0          0          0      13114   decoder.o
       368         50          0          0          0      11683   dma_stm32f10x.o
         0          0        227         56          0       2522   error.o
       268          6          0          0          0      11013   image.o
      3170        408         27          0          0      20487   img_scanner.o
       800         58          0          4          0       7823   init.o
      1138         10          8          0          0       4463   isaac.o
      1176         62          0          0         14       7585   lcd.o
       164         34          0          0          0       3338   led.o
       888        128          0          2      57600     272168   main.o
       598         64         24         28    1136960       7379   malloc.o
       152         12          0          0          0       1778   misc.o
       200         18          0          0          0       4484   my_stm32f10x_exti.o
        84          0          0          0          0       9249   my_stm32f10x_spi.o
       676         32        336          0          0       4205   ov7670.o
       362          0          0          0          0       7951   qr_finder.o
     28480        190        612          0          0      71991   qrdec.o
      1582         14      41804          0          0      13720   qrdectxt.o
         2          0          0          0          0        408   refcnt.o
      2626          0          0          0          0      15441   rs.o
       822          0          0          0          0      10254   scanner.o
       660         60          0          0          0       5070   sccb.o
       190          8          0          0          0       8488   spi.o
       244         18          0          0          0        697   sram.o
        36          8        304          0       4096        816   startup_stm32f10x_hd.o
       282          6          0          0          0       2045   stm32f10x_fsmc.o
       350          4          0          0          0       3930   stm32f10x_gpio.o
       308         38          0         20          0       5262   stm32f10x_rcc.o
        40          0          0          0          0       1986   stm32f10x_tim.o
       274          6          0          0          0       4292   stm32f10x_usart.o
       418        108          0          0          0       9440   symbol.o
       328         28          0          0          0       2105   system_stm32f10x.o
        64         26          0          1          0        653   time.o
       404          4          0          0          0       1993   util.o
       122          0          0          0          0       3407   zbar_config.o

    ----------------------------------------------------------------------
     49294       1514      43424        116    1198672     564519   Object Totals
         0          0         32          0          0          0   (incl. Generated)
        58          0          3          5          2          0   (incl. Padding)

    ----------------------------------------------------------------------

      Code (inc. data)   RO Data    RW Data    ZI Data      Debug   Library Member Name

         0          0          0          0          0          0   entry.o
         0          0          0          0          0          0   entry10a.o
         0          0          0          0          0          0   entry11a.o
         4          0          0          0          0          0   entry12b.o
         8          4          0          0          0          0   entry2.o
         4          0          0          0          0          0   entry5.o
         0          0          0          0          0          0   entry7b.o
         0          0          0          0          0          0   entry8b.o
         8          4          0          0          0          0   entry9a.o
        30          0          0          0          0          0   handlers.o
        36          8          0          0          0         68   init.o
        98          0          0          0          0         84   ldiv.o
        30          0          0          0          0         68   llshl.o
        36          0          0          0          0         68   llsshr.o
        32          0          0          0          0         68   llushr.o
        20          0          0          0          0         68   memchr.o
        26          0          0          0          0         80   memcmp.o
        64          0          0          0          0         76   memmovea.o
      1170         60          0          0          0        436   printf8.o
       156          0          0          0          0         88   qsort.o
         0          0          0          4          0          0   stderr.o
         0          0          0          4          0          0   stdout.o
        28          0          0          0          0         76   strcmp.o
        98          0          0          0          0         92   uldiv.o

    ----------------------------------------------------------------------
      1854         76          0          8          4       1272   Library Totals
         6          0          0          0          4          0   (incl. Padding)

    ----------------------------------------------------------------------

      Code (inc. data)   RO Data    RW Data    ZI Data      Debug   Library Name

      1848         76          0          8          0       1272   mc_w.l

    ----------------------------------------------------------------------
      1854         76          0          8          4       1272   Library Totals

    ----------------------------------------------------------------------

==============================================================================


      Code (inc. data)   RO Data    RW Data    ZI Data      Debug   

     51148       1590      43424        124    1198676     550343   Grand Totals
     51148       1590      43424        124    1198676     550343   ELF Image Totals
     51148       1590      43424        124          0          0   ROM Totals

==============================================================================

    Total RO  Size (Code + RO Data)                94572 (  92.36kB)
    Total RW  Size (RW Data + ZI Data)           1198800 (1170.70kB)
    Total ROM Size (Code + RO Data + RW Data)      94696 (  92.48kB)

==============================================================================

